00504bf8 T __adddf3
00504bf8 T __aeabi_dadd
00504bec T __aeabi_drsub
00504bf4 T __aeabi_dsub
00504ef0 T __aeabi_f2d
00504ec8 T __aeabi_i2d
00504af0 T __aeabi_idiv
00505024 W __aeabi_idiv0
00504bcc T __aeabi_idivmod
00504f44 T __aeabi_l2d
00505024 W __aeabi_ldiv0
00504fa4 T __aeabi_ldivmod
00505350 T __aeabi_llsl
00505334 T __aeabi_llsr
         U __aeabi_memclr
         U __aeabi_memclr4
         U __aeabi_memclr8
         U __aeabi_memcpy
         U __aeabi_memcpy4
         U __aeabi_memcpy8
         U __aeabi_memmove
         U __aeabi_memmove4
         U __aeabi_memset
         U __aeabi_memset4
         U __aeabi_memset8
00504ea4 T __aeabi_ui2d
00504a28 T __aeabi_uidiv
00504ad0 T __aeabi_uidivmod
00504f30 T __aeabi_ul2d
00504fe8 T __aeabi_uldivmod
         U __android_log_write
00505350 T __ashldi3
         U __assert2
00670640 A __bss_start
004f9f26 T __cxa_allocate_dependent_exception
004f9eec T __cxa_allocate_exception
         U __cxa_atexit
004fa088 T __cxa_begin_catch
004f9fd4 T __cxa_begin_cleanup
004fab28 T __cxa_call_unexpected
004fa1bc T __cxa_current_exception_type
004fa270 T __cxa_current_primary_exception
004fa17c T __cxa_decrement_exception_refcount
004fae78 T __cxa_deleted_virtual
004fb2f0 T __cxa_demangle
004fa0f8 T __cxa_end_catch
004f9ea8 T __cxa_end_cleanup
         U __cxa_finalize
004f9f42 T __cxa_free_dependent_exception
004f9f16 T __cxa_free_exception
004f9fce T __cxa_get_exception_ptr
004fa394 T __cxa_get_globals
004fa3dc T __cxa_get_globals_fast
004fa52c T __cxa_guard_abort
004fa460 T __cxa_guard_acquire
004fa4d4 T __cxa_guard_release
004fa254 T __cxa_increment_exception_refcount
00671b0c B __cxa_new_handler
004fae68 T __cxa_pure_virtual
004fa1f4 T __cxa_rethrow
004fa2d0 T __cxa_rethrow_primary_exception
00670630 D __cxa_terminate_handler
004f9f48 T __cxa_throw
004fa36c T __cxa_uncaught_exception
004fa37c T __cxa_uncaught_exceptions
00670634 D __cxa_unexpected_handler
005050ac T __divdi3
00504af0 T __divsi3
00502b98 T __dynamic_cast
         U __errno
00504ef0 T __extendsfdf2
00504f44 T __floatdidf
00504ec8 T __floatsidf
00504f30 T __floatundidf
00504ea4 T __floatunsidf
00505034 T __gnu_ldivmod_helper
00505070 T __gnu_uldivmod_helper
         U __gnu_Unwind_Find_exidx
004fa684 T __gxx_personality_v0
00505334 T __lshrdi3
         U __sF
         U __stack_chk_fail
         U __stack_chk_guard
00504bf4 T __subdf3
00505228 T __udivdi3
00504a28 T __udivsi3
00670640 A _edata
00671d1d A _end
004e5254 T _mesa_align_calloc
004e5290 T _mesa_align_free
004e521c T _mesa_align_malloc
004e5298 T _mesa_align_realloc
004e5634 T _mesa_bsearch
004c1be4 T _mesa_destroy_shader_compiler
004c1bf8 T _mesa_destroy_shader_compiler_caches
004e53ec T _mesa_float_to_half
004e5638 T _mesa_getenv
004c2d88 T _mesa_glsl_initialize_types
004c3318 T _mesa_glsl_release_types
004e557c T _mesa_half_to_float
004e5db0 T _mesa_hash_data
004e5de4 T _mesa_hash_string
004e5760 T _mesa_hash_table_create
004e57f4 T _mesa_hash_table_destroy
004e5a1c T _mesa_hash_table_insert
004e58ec T _mesa_hash_table_next_entry
004e5cc4 T _mesa_hash_table_random_entry
004e5c98 T _mesa_hash_table_remove
004e5964 T _mesa_hash_table_search
004e595c T _mesa_hash_table_set_deleted_key
004e5e3c T _mesa_key_pointer_equal
004e5e24 T _mesa_key_string_equal
004e4d80 T _mesa_new_shader
004e531c T _mesa_realloc
004e4d74 T _mesa_reference_shader
004e5374 T _mesa_round_to_even
004e4d7c T _mesa_shader_debug
004e570c T _mesa_snprintf
004e5698 T _mesa_str_checksum
004e563c T _mesa_strdup
004e567c T _mesa_strtof
004e6184 T _mesa_symbol_table_add_global_symbol
004e60a0 T _mesa_symbol_table_add_symbol
004e6288 T _mesa_symbol_table_ctor
004e62ec T _mesa_symbol_table_dtor
004e6038 T _mesa_symbol_table_find_symbol
004e5ed4 T _mesa_symbol_table_iterator_ctor
004e5f58 T _mesa_symbol_table_iterator_dtor
004e5f5c T _mesa_symbol_table_iterator_get
004e5f70 T _mesa_symbol_table_iterator_next
004e5e4c T _mesa_symbol_table_pop_scope
004e5ea0 T _mesa_symbol_table_push_scope
004e5fc4 T _mesa_symbol_table_symbol_scope
004e5708 T _mesa_vsnprintf
004e4cd4 T _mesa_warning
004eab14 T _Z10can_inlineP7ir_call
004cd958 T _Z10visit_treeP14ir_instructionPFvS0_PvES1_
004c81fc T _Z11reparent_irP9exec_listPv
004dc7c0 T _Z12do_algebraicP9exec_list
004e05a4 T _Z12do_dead_codeP9exec_listb
004d5f98 T _Z12link_shadersP10gl_contextP17gl_shader_program
004d4630 T _Z12linker_errorP17gl_shader_programPKcz
004d8e48 T _Z12unroll_loopsP9exec_listP10loop_statej
004c959c T _Z13clone_ir_listPvP9exec_listPKS0_
004a3bb0 T _Z13do_assignmentP9exec_listP22_mesa_glsl_parse_statePKcP9ir_rvalueS6_b7YYLTYPE
004a8cd8 T _Z13emit_functionP22_mesa_glsl_parse_stateP11ir_function
004f9408 T _Z13process_blockPvP10hash_tableP11ir_variable
004ab130 T _Z13read_builtinsjPKcPS0_j
004b0810 T _Z14_mesa_glsl_lexP7YYSTYPEP7YYLTYPEPv
004eaca8 T _Z14_mesa_print_irP9exec_listP22_mesa_glsl_parse_state
004da8f4 T _Z14do_lower_jumpsP9exec_listbbbbb
004d46b8 T _Z14linker_warningP17gl_shader_programPKcz
004bafb8 T _Z15_mesa_glsl_freePvS_
004d4578 T _Z15check_node_typeP14ir_instructionPv
004e1ec4 T _Z15do_noop_swizzleP9exec_list
004d5250 T _Z15remap_variablesP14ir_instructionP9gl_shaderP10hash_table
004c81b0 T _Z15visit_exec_listP9exec_listP10ir_visitor
004a3750 T _Z16_mesa_ast_to_hirP9exec_listP22_mesa_glsl_parse_state
004baf48 T _Z16_mesa_glsl_allocjPv
004c0308 T _Z16_mesa_glsl_errorP7YYLTYPEP22_mesa_glsl_parse_statePKcz
004bb788 T _Z16_mesa_glsl_parseP22_mesa_glsl_parse_state
004e2cc0 T _Z16do_tree_graftingP9exec_list
004c4350 T _Z16higher_precisionP14ir_instructionS0_
004e6bfc T _Z16prototype_stringPK9glsl_typePKcP9exec_list
004d45c8 T _Z16validate_ir_treeP9exec_list
004bb47c T _Z17_mesa_glsl_get_inPv
004bb514 T _Z17_mesa_glsl_set_inP7__sFILEPv
004e0e74 T _Z17do_dead_functionsP9exec_list
004c4508 T _Z17precision_from_irP14ir_instruction
004d88e4 T _Z17set_loop_controlsP9exec_listP10loop_state
004bb484 T _Z18_mesa_glsl_get_outPv
004d0c68 T _Z18_mesa_glsl_read_irP22_mesa_glsl_parse_stateP9exec_listPKcb
004bb6e4 T _Z18_mesa_glsl_reallocPvjS_
004babe8 T _Z18_mesa_glsl_restartP7__sFILEPv
004bb51c T _Z18_mesa_glsl_set_outP7__sFILEPv
004c05fc T _Z18_mesa_glsl_warningPK7YYLTYPEP22_mesa_glsl_parse_statePKcz
004e0768 T _Z18do_dead_code_localP9exec_list
004e2b04 T _Z18do_swizzle_swizzleP9exec_list
004d8258 T _Z18find_initial_valueP7ir_loopP11ir_variable
004d9d04 T _Z18lower_discard_flowP9exec_list
004d9de0 T _Z18lower_instructionsP9exec_listj
004bb48c T _Z19_mesa_glsl_get_lengPv
004bb544 T _Z19_mesa_glsl_get_llocPv
004bb534 T _Z19_mesa_glsl_get_lvalPv
004bb494 T _Z19_mesa_glsl_get_textPv
004bb554 T _Z19_mesa_glsl_lex_initPPv
004bb54c T _Z19_mesa_glsl_set_llocP7YYLTYPEPv
004bb53c T _Z19_mesa_glsl_set_lvalP7YYSTYPEPv
004ce4bc T _Z19_mesa_print_ir_glslP9exec_listP22_mesa_glsl_parse_statePc13PrintGlslMode
004c4ffc T _Z19depth_layout_string15ir_depth_layout
004dde60 T _Z19do_constant_foldingP9exec_list
004df264 T _Z19do_copy_propagationP9exec_list
004ece40 T _Z19link_function_callsP17gl_shader_programP9gl_shaderPS2_j
004ed3fc T _Z19link_uniform_blocksPvP17gl_shader_programPP9gl_shaderjPP16gl_uniform_block
004d9830 T _Z19lower_clip_distanceP9gl_shader
004a70f0 T _Z19process_initializerP11ir_variableP15ast_declarationP24ast_fully_specified_typeP9exec_listP22_mesa_glsl_parse_state
004a3ae8 T _Z19validate_assignmentP22_mesa_glsl_parse_statePK9glsl_typeP9ir_rvalueb
004cd9cc T _Z19visit_list_elementsP23ir_hierarchical_visitorP9exec_listb
004bb524 T _Z20_mesa_glsl_get_debugPv
004bb424 T _Z20_mesa_glsl_get_extraPv
004bb52c T _Z20_mesa_glsl_set_debugiPv
004bb49c T _Z20_mesa_glsl_set_extraP22_mesa_glsl_parse_statePv
004d8390 T _Z20calculate_iterationsP9ir_rvalueS0_S0_23ir_expression_operation
004dec94 T _Z20do_constant_variableP9exec_list
004e12dc T _Z20do_function_inliningP9exec_list
004e1d24 T _Z20do_if_simplificationP9exec_list
004d5acc T _Z20find_available_slotsjj
004ef794 T _Z20store_tfeedback_infoP10gl_contextP17gl_shader_programjP14tfeedback_decl
004bb454 T _Z21_mesa_glsl_get_columnPv
004bb42c T _Z21_mesa_glsl_get_linenoPv
004bb6e8 T _Z21_mesa_glsl_lexer_ctorP22_mesa_glsl_parse_statePKc
004bb780 T _Z21_mesa_glsl_lexer_dtorP22_mesa_glsl_parse_state
004bb4dc T _Z21_mesa_glsl_set_columniPv
004bb4a4 T _Z21_mesa_glsl_set_linenoiPv
004e9c98 T _Z21call_for_basic_blocksP9exec_listPFvP14ir_instructionS2_PvES3_
004d4874 T _Z21count_attribute_slotsPK9glsl_type
004e06d4 T _Z21do_dead_code_unlinkedP9exec_list
004f0d18 T _Z21lower_packed_varyingsPvjj16ir_variable_modeP9gl_shader
004d52e0 T _Z21move_non_declarationsP9exec_listP9exec_nodebP9gl_shader
004ddb90 T _Z21optimize_split_arraysP9exec_listb
004ef650 T _Z21parse_tfeedback_declsP10gl_contextP17gl_shader_programPKvjPPcP14tfeedback_decl
004bb338 T _Z22_mesa_glsl__scan_bytesPKcjPv
004bb640 T _Z22_mesa_glsl_lex_destroyPv
004d8118 T _Z22analyze_loop_variablesP9exec_list
004d4b5c T _Z22cross_validate_globalsP17gl_shader_programPP9gl_shaderjb
004c1a14 T _Z22do_common_optimizationP9exec_listbbj
004e21d8 T _Z22do_structure_splittingP9exec_list
004bb268 T _Z23_mesa_glsl__scan_bufferPcjPv
004bb310 T _Z23_mesa_glsl__scan_stringPKcPv
004e7284 T _Z23assign_to_matrix_columnP11ir_variablejjP9ir_rvaluejjPv
004d5240 T _Z23cross_validate_uniformsP17gl_shader_program
004cd1d8 T _Z23detect_recursion_linkedP17gl_shader_programP9exec_list
004de1d0 T _Z23do_constant_propagationP9exec_list
004dc750 T _Z23do_vec_index_to_swizzleP9exec_list
004d54c8 T _Z23link_intrastage_shadersPvP10gl_contextP17gl_shader_programPP9gl_shaderj
004e6d3c T _Z23single_scalar_parameterP9exec_list
004bafbc T _Z24_mesa_glsl__flush_bufferP15yy_buffer_statePv
004efd00 T _Z24assign_varying_locationsP10gl_contextPvP17gl_shader_programP9gl_shaderS5_jP14tfeedback_decl
004e1fe0 T _Z24optimize_redundant_jumpsP9exec_list
004baaa0 T _Z25_mesa_glsl__create_bufferP7__sFILEiPv
004baf4c T _Z25_mesa_glsl__delete_bufferP15yy_buffer_statePv
004bb5ac T _Z25_mesa_glsl_lex_init_extraP22_mesa_glsl_parse_statePPv
004a39bc T _Z25apply_implicit_conversionPK9glsl_typeRP9ir_rvalueP22_mesa_glsl_parse_state
004ccea8 T _Z25detect_recursion_unlinkedP22_mesa_glsl_parse_stateP9exec_list
004d3b9c T _Z26do_remove_unused_typedeclsP9exec_list
004a40a8 T _Z26get_scalar_boolean_operandP9exec_listP22_mesa_glsl_parse_stateP14ast_expressioniPKcPb
004bb1b0 T _Z27_mesa_glsl_pop_buffer_statePv
004bf7b4 T _Z27glsl_compute_version_stringPvbj
004d4734 T _Z27parse_program_resource_namePKcPS0_
004e674c T _Z28_mesa_ast_array_index_to_hirPvP22_mesa_glsl_parse_stateP9ir_rvalueS3_R7YYLTYPES5_
004badf0 T _Z28_mesa_glsl__switch_to_bufferP15yy_buffer_statePv
004bfd5c T _Z28_mesa_glsl_process_extensionPKcP7YYLTYPES0_S2_P22_mesa_glsl_parse_state
004bb040 T _Z28_mesa_glsl_push_buffer_stateP15yy_buffer_statePv
004ab2ec T _Z28_mesa_glsl_release_functionsv
004a41a0 T _Z28check_builtin_array_max_sizePKcj7YYLTYPEP22_mesa_glsl_parse_state
004dfa34 T _Z28do_copy_propagation_elementsP9exec_list
004e1174 T _Z28opt_flatten_nested_if_blocksP9exec_list
004c05d4 T _Z29_mesa_glsl_shader_target_name25_mesa_glsl_parser_targets
004ded68 T _Z29do_constant_variable_unlinkedP9exec_list
004a6d84 T _Z29get_variable_being_redeclaredP11ir_variableP15ast_declarationP22_mesa_glsl_parse_state
004ee000 T _Z29link_assign_uniform_locationsP17gl_shader_program
004f9b10 T _Z29link_set_uniform_initializersP17gl_shader_program
004c0798 T _Z30_mesa_ast_type_qualifier_printPK18ast_type_qualifier
004e7364 T _Z30emit_inline_matrix_constructorPK9glsl_typeiP9exec_listS3_Pv
004e7dc0 T _Z30emit_inline_record_constructorPK9glsl_typeP9exec_listS3_Pv
004e6d7c T _Z30emit_inline_vector_constructorPK9glsl_typejP9exec_listS3_Pv
004e4db4 T _Z30initialize_context_to_defaultsP10gl_context6gl_api
004ab330 T _Z31_mesa_glsl_initialize_functionsP22_mesa_glsl_parse_state
004ac73c T _Z31_mesa_glsl_initialize_variablesP9exec_listP22_mesa_glsl_parse_state
004c40e4 T _Z32_mesa_ast_field_selection_to_hirPK14ast_expressionP9exec_listP22_mesa_glsl_parse_state
004eecac T _Z32cross_validate_outputs_to_inputsP17gl_shader_programP9gl_shaderS2_
004d5f2c T _Z32demote_shader_inputs_and_outputsP9gl_shader16ir_variable_mode
004edf0c T _Z33link_assign_uniform_block_offsetsP9gl_shader
004edda0 T _Z33link_cross_validate_uniform_blockPvPP16gl_uniform_blockPjS1_
004d48bc T _Z33validate_vertex_shader_executableP17gl_shader_programP9gl_shader
004d47bc T _Z34link_invalidate_variable_locationsP9gl_shaderii
004ed84c T _Z34link_uniform_blocks_are_compatiblePK16gl_uniform_blockS1_
004d5b24 T _Z35assign_attribute_or_color_locationsP17gl_shader_programjj
004d4a68 T _Z35validate_fragment_shader_executableP17gl_shader_programP9gl_shader
004aa818 T _Z40ast_process_structure_or_interface_blockP9exec_listP22_mesa_glsl_parse_stateS0_R7YYLTYPEPP17glsl_struct_fieldbb
004e4bbc T _Z7s_matchP12s_expressionjP9s_patternb
004f9dc8 W _ZdaPv
004f9dd0 W _ZdaPvj
004f9ea2 W _ZdaPvjSt11align_val_t
004f9dcc W _ZdaPvRKSt9nothrow_t
004f9e9a W _ZdaPvSt11align_val_t
004f9e9e W _ZdaPvSt11align_val_tRKSt9nothrow_t
004f9dbc W _ZdlPv
004f9dc4 W _ZdlPvj
004f9e94 W _ZdlPvjSt11align_val_t
004f9dc0 W _ZdlPvRKSt9nothrow_t
004f9e8c W _ZdlPvSt11align_val_t
004f9e90 W _ZdlPvSt11align_val_tRKSt9nothrow_t
00670680 V _ZGVZN5Regal2r3mlIfEENS0_7Matrix4IT_EERKS4_S6_E7product
004f9ebe T _ZN10__cxxabiv119__getExceptionClassEPK21_Unwind_Control_Block
004f9eb8 T _ZN10__cxxabiv119__setExceptionClassEP21_Unwind_Control_Blocky
004f9ec4 T _ZN10__cxxabiv121__isOurExceptionClassEPK21_Unwind_Control_Block
004e9ecc T _ZN10ir_builder10ir_factory4emitEP14ir_instruction
004e9ef4 T _ZN10ir_builder10ir_factory9make_tempEPK9glsl_typePKc
004ea544 T _ZN10ir_builder10round_evenENS_7operandE
004ea344 T _ZN10ir_builder10swizzle_xyENS_7operandE
004ea388 T _ZN10ir_builder11swizzle_xyzENS_7operandE
004ea1e0 T _ZN10ir_builder12swizzle_wwwwENS_7operandE
004ea108 T _ZN10ir_builder12swizzle_xxxxENS_7operandE
004ea3d0 T _ZN10ir_builder12swizzle_xyzwENS_7operandE
004ea150 T _ZN10ir_builder12swizzle_yyyyENS_7operandE
004ea198 T _ZN10ir_builder12swizzle_zzzzENS_7operandE
004ea044 T _ZN10ir_builder16swizzle_for_sizeENS_7operandEj
004ea484 T _ZN10ir_builder3addENS_7operandES0_
004ea514 T _ZN10ir_builder3divENS_7operandES0_
004ea56c T _ZN10ir_builder3dotENS_7operandES0_
004ea8d8 T _ZN10ir_builder3f2iENS_7operandE
004ea978 T _ZN10ir_builder3f2uENS_7operandE
004ea900 T _ZN10ir_builder3i2fENS_7operandE
004ea928 T _ZN10ir_builder3i2uENS_7operandE
004ea4e4 T _ZN10ir_builder3mulENS_7operandES0_
004ea4b4 T _ZN10ir_builder3subENS_7operandES0_
004ea9a0 T _ZN10ir_builder3u2fENS_7operandE
004ea950 T _ZN10ir_builder3u2iENS_7operandE
004ea41c T _ZN10ir_builder4exprE23ir_expression_operationNS_7operandE
004ea44c T _ZN10ir_builder4exprE23ir_expression_operationNS_7operandES1_
004ea6a8 T _ZN10ir_builder4lessENS_7operandES0_
004ea59c T _ZN10ir_builder5clampENS_7operandES0_S0_
004ea678 T _ZN10ir_builder5equalENS_7operandES0_
004e9fa0 T _ZN10ir_builder6assignENS_5derefENS_7operandE
004e9f60 T _ZN10ir_builder6assignENS_5derefENS_7operandEi
004ea848 T _ZN10ir_builder6bit_orENS_7operandES0_
004ea738 T _ZN10ir_builder6gequalENS_7operandES0_
004ea708 T _ZN10ir_builder6lequalENS_7operandES0_
004ea878 T _ZN10ir_builder6lshiftENS_7operandES0_
004ea8a8 T _ZN10ir_builder6rshiftENS_7operandES0_
004ea818 T _ZN10ir_builder7bit_andENS_7operandES0_
004ea7f0 T _ZN10ir_builder7bit_notENS_7operandE
004ea6d8 T _ZN10ir_builder7greaterENS_7operandES0_
004ea9c8 T _ZN10ir_builder7if_treeENS_7operandEP14ir_instruction
004eaa54 T _ZN10ir_builder7if_treeENS_7operandEP14ir_instructionS2_
004e9ff4 T _ZN10ir_builder7swizzleENS_7operandEii
004ea7c0 T _ZN10ir_builder8logic_orENS_7operandES0_
004ea5f0 T _ZN10ir_builder8saturateENS_7operandE
004ea790 T _ZN10ir_builder9logic_andENS_7operandES0_
004ea768 T _ZN10ir_builder9logic_notENS_7operandE
004ea2fc T _ZN10ir_builder9swizzle_wENS_7operandE
004ea228 T _ZN10ir_builder9swizzle_xENS_7operandE
004ea270 T _ZN10ir_builder9swizzle_yENS_7operandE
004ea2b4 T _ZN10ir_builder9swizzle_zENS_7operandE
004c9740 W _ZN10ir_discard10as_discardEv
004c9728 W _ZN10ir_discard6acceptEP10ir_visitor
004ce2fc T _ZN10ir_discard6acceptEP23ir_hierarchical_visitor
004c9724 W _ZN10ir_discardD0Ev
004c97e8 W _ZN10ir_swizzle10as_swizzleEv
004cc180 T _ZN10ir_swizzle25constant_expression_valueEP10hash_table
004c97d0 W _ZN10ir_swizzle6acceptEP10ir_visitor
004cdf10 T _ZN10ir_swizzle6acceptEP23ir_hierarchical_visitor
004c7b4c T _ZN10ir_swizzle6createEP9ir_rvaluePKcj
004c76f4 T _ZN10ir_swizzle9init_maskEPKjj
004c7a44 T _ZN10ir_swizzleC1EP9ir_rvalue15ir_swizzle_mask
004c7808 T _ZN10ir_swizzleC1EP9ir_rvaluejjjjj
004c794c T _ZN10ir_swizzleC1EP9ir_rvaluePKjj
004c7a44 T _ZN10ir_swizzleC2EP9ir_rvalue15ir_swizzle_mask
004c7808 T _ZN10ir_swizzleC2EP9ir_rvaluejjjjj
004c794c T _ZN10ir_swizzleC2EP9ir_rvaluePKjj
004c97cc W _ZN10ir_swizzleD0Ev
004c75bc T _ZN10ir_texture10get_opcodeEPKc
004c76e8 T _ZN10ir_texture11set_samplerEP14ir_dereferencePK9glsl_type
004c75a4 T _ZN10ir_texture13opcode_stringEv
004cc178 T _ZN10ir_texture25constant_expression_valueEP10hash_table
004c975c W _ZN10ir_texture6acceptEP10ir_visitor
004cdde4 T _ZN10ir_texture6acceptEP23ir_hierarchical_visitor
004c9758 W _ZN10ir_textureD0Ev
004d0c58 W _ZN10ir_visitor5visitEP9ir_rvalue
004ce728 W _ZN10ir_visitorD2Ev
004d7804 T _ZN10loop_state3getEPK7ir_loop
004d7724 T _ZN10loop_state6insertEP7ir_loop
004d76b4 T _ZN10loop_stateC1Ev
004d76b4 T _ZN10loop_stateC2Ev
004d7700 T _ZN10loop_stateD1Ev
004d7700 T _ZN10loop_stateD2Ev
004d81f0 W _ZN11examine_rhs5visitEP23ir_dereference_variable
004d81ec W _ZN11examine_rhsD0Ev
004c9970 W _ZN11ir_constant11as_constantEv
004c5d3c T _ZN11ir_constant11copy_offsetEPS_i
004c5cc0 T _ZN11ir_constant16get_record_fieldEPKc
004c6038 T _ZN11ir_constant18copy_masked_offsetEPS_ij
004cc7a8 T _ZN11ir_constant25constant_expression_valueEP10hash_table
004c5b68 T _ZN11ir_constant4zeroEPvPK9glsl_type
004c9958 W _ZN11ir_constant6acceptEP10ir_visitor
004ce198 T _ZN11ir_constant6acceptEP23ir_hierarchical_visitor
004c52b4 T _ZN11ir_constantC1Eb
004c5140 T _ZN11ir_constantC1Ef
004c5238 T _ZN11ir_constantC1Ei
004c51bc T _ZN11ir_constantC1Ej
004c53f0 T _ZN11ir_constantC1EPK9glsl_typeP9exec_list
004c50d4 T _ZN11ir_constantC1EPK9glsl_typePK16ir_constant_data
004c5328 T _ZN11ir_constantC1EPKS_j
004c5070 T _ZN11ir_constantC1Ev
004c52b4 T _ZN11ir_constantC2Eb
004c5140 T _ZN11ir_constantC2Ef
004c5238 T _ZN11ir_constantC2Ei
004c51bc T _ZN11ir_constantC2Ej
004c53f0 T _ZN11ir_constantC2EPK9glsl_typeP9exec_list
004c50d4 T _ZN11ir_constantC2EPK9glsl_typePK16ir_constant_data
004c5328 T _ZN11ir_constantC2EPKS_j
004c5070 T _ZN11ir_constantC2Ev
004c9954 W _ZN11ir_constantD0Ev
004c9934 W _ZN11ir_function11as_functionEv
004c8124 T _ZN11ir_function18has_user_signatureEv
004ccc44 T _ZN11ir_function18matching_signatureEPK9exec_list
004ccc84 T _ZN11ir_function18matching_signatureEPK9exec_listPb
004cce18 T _ZN11ir_function24exact_matching_signatureEPK9exec_list
004c991c W _ZN11ir_function6acceptEP10ir_visitor
004cdc90 T _ZN11ir_function6acceptEP23ir_hierarchical_visitor
004c80c8 T _ZN11ir_functionC1EPKc
004c80c8 T _ZN11ir_functionC2EPKc
004c9918 W _ZN11ir_functionD0Ev
004d3dac T _ZN11ir_validate11validate_irEP14ir_instructionPv
004d3f0c T _ZN11ir_validate11visit_enterEP11ir_function
004d428c T _ZN11ir_validate11visit_enterEP13ir_assignment
004d4014 T _ZN11ir_validate11visit_enterEP21ir_function_signature
004d3e08 T _ZN11ir_validate11visit_enterEP5ir_if
004d43c8 T _ZN11ir_validate11visit_enterEP7ir_call
004d4128 T _ZN11ir_validate11visit_leaveEP10ir_swizzle
004d4004 T _ZN11ir_validate11visit_leaveEP11ir_function
004d40f8 T _ZN11ir_validate11visit_leaveEP13ir_expression
004d3e60 T _ZN11ir_validate11visit_leaveEP7ir_loop
004d41f8 T _ZN11ir_validate5visitEP11ir_variable
004d3cd4 T _ZN11ir_validate5visitEP23ir_dereference_variable
004d45fc W _ZN11ir_validateD0Ev
004d45cc W _ZN11ir_validateD2Ev
004c97c8 W _ZN11ir_variable11as_variableEv
004c7ee4 T _ZN11ir_variable28determine_interpolation_modeEb
004c97b0 W _ZN11ir_variable6acceptEP10ir_visitor
004cda54 T _ZN11ir_variable6acceptEP23ir_hierarchical_visitor
004c7e00 T _ZN11ir_variableC1EPK9glsl_typePKc16ir_variable_mode14glsl_precision
004c7e00 T _ZN11ir_variableC2EPK9glsl_typePKc16ir_variable_mode14glsl_precision
004c97ac W _ZN11ir_variableD0Ev
004dc310 W _ZN11loop_record14get_break_flagEv
004dc110 W _ZN11loop_record16get_execute_flagEv
004eda20 W _ZN11ubo_visitor11visit_fieldEPK17glsl_struct_field
004ed904 W _ZN11ubo_visitor11visit_fieldEPK9glsl_typePKcb
004ed900 W _ZN11ubo_visitorD0Ev
004a8d00 T _ZN12ast_function3hirEP9exec_listP22_mesa_glsl_parse_state
004c0f4c T _ZN12ast_functionC1Ev
004c0f4c T _ZN12ast_functionC2Ev
004c1c10 W _ZN12ast_functionD0Ev
004c970c W _ZN12ir_loop_jump6acceptEP10ir_visitor
004cdb84 T _ZN12ir_loop_jump6acceptEP23ir_hierarchical_visitor
004c9708 W _ZN12ir_loop_jumpD0Ev
004e4528 T _ZN12s_expression15read_expressionEPvRPKc
004c9914 W _ZN13ir_assignment13as_assignmentEv
004c4930 T _ZN13ir_assignment22whole_variable_writtenEv
004cc7a0 T _ZN13ir_assignment25constant_expression_valueEP10hash_table
004c98fc W _ZN13ir_assignment6acceptEP10ir_visitor
004ce0c4 T _ZN13ir_assignment6acceptEP23ir_hierarchical_visitor
004c45f8 T _ZN13ir_assignment7set_lhsEP9ir_rvalue
004c49c4 T _ZN13ir_assignmentC1EP14ir_dereferenceP9ir_rvalueS3_j
004c4a14 T _ZN13ir_assignmentC1EP9ir_rvalueS1_S1_
004c49c4 T _ZN13ir_assignmentC2EP14ir_dereferenceP9ir_rvalueS3_j
004c4a14 T _ZN13ir_assignmentC2EP9ir_rvalueS1_S1_
004c98f8 W _ZN13ir_assignmentD0Ev
004c5028 T _ZN13ir_expression12get_operatorEPKc
004c9864 W _ZN13ir_expression13as_expressionEv
004c4fd0 T _ZN13ir_expression15operator_stringE23ir_expression_operation
004c4fe4 T _ZN13ir_expression15operator_stringEv
004c4f94 T _ZN13ir_expression16get_num_operandsE23ir_expression_operation
004c99a8 T _ZN13ir_expression25constant_expression_valueEP10hash_table
004c984c W _ZN13ir_expression6acceptEP10ir_visitor
004cdd24 T _ZN13ir_expression6acceptEP23ir_hierarchical_visitor
004c4b7c T _ZN13ir_expressionC1EiP9ir_rvalue
004c4e18 T _ZN13ir_expressionC1EiP9ir_rvalueS1_
004c4ae4 T _ZN13ir_expressionC1EiPK9glsl_typeP9ir_rvalueS4_S4_S4_
004c4b7c T _ZN13ir_expressionC2EiP9ir_rvalue
004c4e18 T _ZN13ir_expressionC2EiP9ir_rvalueS1_
004c4ae4 T _ZN13ir_expressionC2EiPK9glsl_typeP9ir_rvalueS4_S4_S4_
004c9848 W _ZN13ir_expressionD0Ev
004d80ec T _ZN13loop_analysis11visit_enterEP13ir_assignment
004d80ac T _ZN13loop_analysis11visit_enterEP5ir_if
004d7918 T _ZN13loop_analysis11visit_enterEP7ir_call
004d7a44 T _ZN13loop_analysis11visit_enterEP7ir_loop
004d8108 T _ZN13loop_analysis11visit_leaveEP13ir_assignment
004d80cc T _ZN13loop_analysis11visit_leaveEP5ir_if
004d7b38 T _ZN13loop_analysis11visit_leaveEP7ir_loop
004d78f0 T _ZN13loop_analysis5visitEP12ir_loop_jump
004d7934 T _ZN13loop_analysis5visitEP23ir_dereference_variable
004d78a4 T _ZN13loop_analysisC1EP10loop_state
004d78a4 T _ZN13loop_analysisC2EP10loop_state
004d81e0 W _ZN13loop_analysisD0Ev
004aa028 T _ZN14ast_case_label3hirEP9exec_listP22_mesa_glsl_parse_state
004c156c T _ZN14ast_case_labelC1EP14ast_expression
004c156c T _ZN14ast_case_labelC2EP14ast_expression
004c1c30 W _ZN14ast_case_labelD0Ev
004e6b5c T _ZN14ast_expression15operator_stringE13ast_operators
004a4270 T _ZN14ast_expression3hirEP9exec_listP22_mesa_glsl_parse_state
004c0e1c T _ZN14ast_expressionC1EiPS_S0_S0_
004c0e1c T _ZN14ast_expressionC2EiPS_S0_S0_
004aafac W _ZN14ast_expressionD0Ev
004c8524 W _ZN14ir_dereference14as_dereferenceEv
004c84f8 W _ZN14ir_dereferenceD0Ev
004c8584 W _ZN14ir_instruction10as_discardEv
004c8574 W _ZN14ir_instruction10as_swizzleEv
004c857c W _ZN14ir_instruction11as_constantEv
004c851c W _ZN14ir_instruction11as_functionEv
004c8514 W _ZN14ir_instruction11as_variableEv
004c8554 W _ZN14ir_instruction13as_assignmentEv
004c8540 W _ZN14ir_instruction13as_expressionEv
004c96b4 W _ZN14ir_instruction14as_dereferenceEv
004c8528 W _ZN14ir_instruction20as_dereference_arrayEv
004c8538 W _ZN14ir_instruction21as_dereference_recordEv
004c8530 W _ZN14ir_instruction23as_dereference_variableEv
004c856c W _ZN14ir_instruction5as_ifEv
004c855c W _ZN14ir_instruction7as_callEv
004c854c W _ZN14ir_instruction7as_loopEv
004c8564 W _ZN14ir_instruction9as_returnEv
004c96bc W _ZN14ir_instruction9as_rvalueEv
004c84f4 W _ZN14ir_instructionD2Ev
004ef5f4 T _ZN14tfeedback_decl14find_candidateEP17gl_shader_programP10hash_table
004ef174 T _ZN14tfeedback_decl15assign_locationEP10gl_contextP17gl_shader_program
004eef90 T _ZN14tfeedback_decl4initEP10gl_contextP17gl_shader_programPKvPKc
004ef120 T _ZN14tfeedback_decl7is_sameERKS_S1_
004c1114 T _ZN15ast_declarationC1EPKciP14ast_expressionS3_
004c1114 T _ZN15ast_declarationC2EPKciP14ast_expressionS3_
004c1c18 W _ZN15ast_declarationD0Ev
004a9dcc T _ZN15ast_switch_body3hirEP9exec_listP22_mesa_glsl_parse_state
004c14d8 T _ZN15ast_switch_bodyC1EP23ast_case_statement_list
004c14d8 T _ZN15ast_switch_bodyC2EP23ast_case_statement_list
004c1c2c W _ZN15ast_switch_bodyD0Ev
004dc214 W _ZN15function_record15get_return_flagEv
004efbb8 T _ZN15varying_matches16assign_locationsEv
004efc58 T _ZN15varying_matches16match_comparatorEPKvS1_
004efb68 T _ZN15varying_matches21compute_packing_classEP11ir_variable
004efb7c T _ZN15varying_matches21compute_packing_orderEP11ir_variable
004ef9a4 T _ZN15varying_matches6recordEP11ir_variableS1_
004ef954 T _ZN15varying_matchesC1Ebb
004ef954 T _ZN15varying_matchesC2Ebb
004ef988 T _ZN15varying_matchesD1Ev
004ef988 T _ZN15varying_matchesD2Ev
004ed8f0 W _ZN16count_block_size11visit_fieldEPK9glsl_typePKcb
004ed8ec W _ZN16count_block_sizeD0Ev
004eb088 T _ZN16ir_print_visitor11unique_nameEP11ir_variable
004ebdf0 T _ZN16ir_print_visitor5visitEP10ir_discard
004eb7d0 T _ZN16ir_print_visitor5visitEP10ir_swizzle
004eb680 T _ZN16ir_print_visitor5visitEP10ir_texture
004ebae8 T _ZN16ir_print_visitor5visitEP11ir_constant
004eb4dc T _ZN16ir_print_visitor5visitEP11ir_function
004eb190 T _ZN16ir_print_visitor5visitEP11ir_variable
004ec238 T _ZN16ir_print_visitor5visitEP12ir_loop_jump
004eb9a8 T _ZN16ir_print_visitor5visitEP13ir_assignment
004eb5d4 T _ZN16ir_print_visitor5visitEP13ir_expression
004eb900 T _ZN16ir_print_visitor5visitEP20ir_dereference_array
004eb95c T _ZN16ir_print_visitor5visitEP21ir_dereference_record
004eb258 T _ZN16ir_print_visitor5visitEP21ir_function_signature
004ec284 T _ZN16ir_print_visitor5visitEP21ir_typedecl_statement
004ec270 T _ZN16ir_print_visitor5visitEP22ir_precision_statement
004eb8c0 T _ZN16ir_print_visitor5visitEP23ir_dereference_variable
004ebe44 T _ZN16ir_print_visitor5visitEP5ir_if
004ebcf4 T _ZN16ir_print_visitor5visitEP7ir_call
004ec094 T _ZN16ir_print_visitor5visitEP7ir_loop
004ebd9c T _ZN16ir_print_visitor5visitEP9ir_return
004eb180 T _ZN16ir_print_visitor5visitEP9ir_rvalue
004eb044 T _ZN16ir_print_visitor6indentEv
004eaf58 T _ZN16ir_print_visitorC1Ev
004eaf58 T _ZN16ir_print_visitorC2Ev
004eb000 T _ZN16ir_print_visitorD0Ev
004eafc0 T _ZN16ir_print_visitorD1Ev
004eafc0 T _ZN16ir_print_visitorD2Ev
004aad44 T _ZN17ast_uniform_block3hirEP9exec_listP22_mesa_glsl_parse_state
004aafb4 W _ZN17ast_uniform_blockD0Ev
004ed07c W _ZN17call_link_visitor11visit_enterEP7ir_call
004ecf68 W _ZN17call_link_visitor5visitEP11ir_variable
004ecf84 W _ZN17call_link_visitor5visitEP23ir_dereference_variable
004ecf34 W _ZN17call_link_visitorD0Ev
004ecf04 W _ZN17call_link_visitorD2Ev
004c1c9c T _ZN17glsl_symbol_table10push_scopeEv
004c1e1c T _ZN17glsl_symbol_table12add_functionEP11ir_function
004c1cd0 T _ZN17glsl_symbol_table12add_variableEP11ir_variable
004c1f48 T _ZN17glsl_symbol_table12get_functionEPKc
004c1ef8 T _ZN17glsl_symbol_table12get_variableEPKc
004c1eb8 T _ZN17glsl_symbol_table19add_global_functionEP11ir_function
004c1cac T _ZN17glsl_symbol_table24name_declared_this_scopeEPKc
004bf7b0 W _ZN17glsl_symbol_table29_glsl_symbol_table_destructorEPS_
004c1dd0 T _ZN17glsl_symbol_table8add_typeEPKcPK9glsl_type
004c1f20 T _ZN17glsl_symbol_table8get_typeEPKc
004c1dc0 T _ZN17glsl_symbol_table9get_entryEPKc
004c1ca4 T _ZN17glsl_symbol_table9pop_scopeEv
004c1c48 T _ZN17glsl_symbol_tableC1Ev
004c1c48 T _ZN17glsl_symbol_tableC2Ev
004c1c78 T _ZN17glsl_symbol_tableD1Ev
004c1c78 T _ZN17glsl_symbol_tableD2Ev
004ec684 T _ZN17ir_rvalue_visitor11visit_leaveEP10ir_swizzle
004ec5dc T _ZN17ir_rvalue_visitor11visit_leaveEP10ir_texture
004ec714 T _ZN17ir_rvalue_visitor11visit_leaveEP13ir_assignment
004ec56c T _ZN17ir_rvalue_visitor11visit_leaveEP13ir_expression
004ec6a4 T _ZN17ir_rvalue_visitor11visit_leaveEP20ir_dereference_array
004ec6f4 T _ZN17ir_rvalue_visitor11visit_leaveEP21ir_dereference_record
004ec830 T _ZN17ir_rvalue_visitor11visit_leaveEP5ir_if
004ec754 T _ZN17ir_rvalue_visitor11visit_leaveEP7ir_call
004ec810 T _ZN17ir_rvalue_visitor11visit_leaveEP9ir_return
004ecb34 W _ZN17ir_rvalue_visitorD0Ev
004d8ef0 W _ZN17loop_unroll_count11visit_enterEP13ir_assignment
004d8edc W _ZN17loop_unroll_count11visit_enterEP13ir_expression
004d8ecc W _ZN17loop_unroll_count11visit_enterEP7ir_loop
004d8ec8 W _ZN17loop_unroll_countD0Ev
004a9e48 T _ZN18ast_case_statement3hirEP9exec_listP22_mesa_glsl_parse_state
004c1688 T _ZN18ast_case_statementC1EP19ast_case_label_list
004c1688 T _ZN18ast_case_statementC2EP19ast_case_label_list
004c1c38 W _ZN18ast_case_statementD0Ev
004e6b70 T _ZN18ast_expression_binC1EiP14ast_expressionS1_
004e6b70 T _ZN18ast_expression_binC2EiP14ast_expressionS1_
004e6bf8 W _ZN18ast_expression_binD0Ev
004a94a0 T _ZN18ast_jump_statement3hirEP9exec_listP22_mesa_glsl_parse_state
004c1314 T _ZN18ast_jump_statementC1EiP14ast_expression
004c1314 T _ZN18ast_jump_statementC2EiP14ast_expression
004c1c20 W _ZN18ast_jump_statementD0Ev
004ab0a4 T _ZN18ast_type_qualifier15merge_qualifierEP7YYLTYPEP22_mesa_glsl_parse_stateS_
004aa5fc T _ZN18ast_type_specifier3hirEP9exec_listP22_mesa_glsl_parse_state
004ab12c W _ZN18ast_type_specifierD0Ev
004ee828 W _ZN18count_uniform_size11visit_fieldEPK9glsl_typePKcb
004ee824 W _ZN18count_uniform_sizeD0Ev
004d767c W _ZN18find_deref_visitor5visitEP23ir_dereference_variable
004d7678 W _ZN18find_deref_visitorD0Ev
004ee820 W _ZN18string_to_uint_map10delete_keyEPKvPvS2_
004a9fd8 T _ZN19ast_case_label_list3hirEP9exec_listP22_mesa_glsl_parse_state
004c15e8 T _ZN19ast_case_label_listC1Ev
004c15e8 T _ZN19ast_case_label_listC2Ev
004c1c34 W _ZN19ast_case_label_listD0Ev
004a74cc T _ZN19ast_declarator_list3hirEP9exec_listP22_mesa_glsl_parse_state
004c120c T _ZN19ast_declarator_listC1EP24ast_fully_specified_type
004c120c T _ZN19ast_declarator_listC2EP24ast_fully_specified_type
004c1c1c W _ZN19ast_declarator_listD0Ev
004d895c T _ZN19loop_unroll_visitor11visit_leaveEP7ir_loop
004d8ec4 W _ZN19loop_unroll_visitorD0Ev
004d81e4 W _ZN19loop_variable_state10destructorEPS_
004d780c T _ZN19loop_variable_state3getEPK11ir_variable
004d7814 T _ZN19loop_variable_state6insertEP11ir_variable
004d7868 T _ZN19loop_variable_state6insertEP5ir_if
004d7630 W _ZN20array_sizing_visitor5visitEP11ir_variable
004d762c W _ZN20array_sizing_visitorD0Ev
004aab94 T _ZN20ast_struct_specifier3hirEP9exec_listP22_mesa_glsl_parse_state
004c194c T _ZN20ast_struct_specifierC1EPKcP19ast_declarator_list
004c194c T _ZN20ast_struct_specifierC2EPKcP19ast_declarator_list
004c1c44 W _ZN20ast_struct_specifierD0Ev
004a9cf4 T _ZN20ast_switch_statement11test_to_hirEP9exec_listP22_mesa_glsl_parse_state
004a9a10 T _ZN20ast_switch_statement3hirEP9exec_listP22_mesa_glsl_parse_state
004c145c T _ZN20ast_switch_statementC1EP14ast_expressionP8ast_node
004c145c T _ZN20ast_switch_statementC2EP14ast_expressionP8ast_node
004c1c28 W _ZN20ast_switch_statementD0Ev
004c98b4 W _ZN20ir_dereference_array20as_dereference_arrayEv
004cc4c8 T _ZN20ir_dereference_array25constant_expression_valueEP10hash_table
004c989c W _ZN20ir_dereference_array6acceptEP10ir_visitor
004cdfa4 T _ZN20ir_dereference_array6acceptEP23ir_hierarchical_visitor
004c6fc0 T _ZN20ir_dereference_array9set_arrayEP9ir_rvalue
004c7038 T _ZN20ir_dereference_arrayC1EP11ir_variableP9ir_rvalue
004c6e78 T _ZN20ir_dereference_arrayC1EP9ir_rvalueS1_
004c7038 T _ZN20ir_dereference_arrayC2EP11ir_variableP9ir_rvalue
004c6e78 T _ZN20ir_dereference_arrayC2EP9ir_rvalueS1_
004c9898 W _ZN20ir_dereference_arrayD0Ev
004d8600 T _ZN20loop_control_visitor11visit_leaveEP7ir_loop
004d8958 W _ZN20loop_control_visitorD0Ev
004c9978 W _ZN21fixup_ir_call_visitor11visit_enterEP7ir_call
004c9974 W _ZN21fixup_ir_call_visitorD0Ev
004cd368 W _ZN21has_recursion_visitor11visit_enterEP21ir_function_signature
004cd3f8 W _ZN21has_recursion_visitor11visit_enterEP7ir_call
004cd3e8 W _ZN21has_recursion_visitor11visit_leaveEP21ir_function_signature
004cd32c W _ZN21has_recursion_visitorD0Ev
004cd1a0 W _ZN21has_recursion_visitorD2Ev
004c98e4 W _ZN21ir_dereference_record21as_dereference_recordEv
004cc764 T _ZN21ir_dereference_record25constant_expression_valueEP10hash_table
004c98cc W _ZN21ir_dereference_record6acceptEP10ir_visitor
004ce048 T _ZN21ir_dereference_record6acceptEP23ir_hierarchical_visitor
004c736c T _ZN21ir_dereference_recordC1EP11ir_variablePKc
004c7248 T _ZN21ir_dereference_recordC1EP9ir_rvaluePKc
004c736c T _ZN21ir_dereference_recordC2EP11ir_variablePKc
004c7248 T _ZN21ir_dereference_recordC2EP9ir_rvaluePKc
004c98c8 W _ZN21ir_dereference_recordD0Ev
004c7f94 T _ZN21ir_function_signature16qualifiers_matchEP9exec_list
004c8024 T _ZN21ir_function_signature18replace_parametersEP9exec_list
004cc7c0 T _ZN21ir_function_signature25constant_expression_valueEP9exec_listP10hash_table
004cc940 T _ZN21ir_function_signature44constant_expression_evaluate_expression_listERK9exec_listP10hash_tablePP11ir_constant
004c993c W _ZN21ir_function_signature6acceptEP10ir_visitor
004cdb9c T _ZN21ir_function_signature6acceptEP23ir_hierarchical_visitor
004c7f20 T _ZN21ir_function_signatureC1EPK9glsl_type14glsl_precision
004c7f20 T _ZN21ir_function_signatureC2EPK9glsl_type14glsl_precision
004c9938 W _ZN21ir_function_signatureD0Ev
004ce778 T _ZN21ir_print_glsl_visitor14print_var_nameEP11ir_variable
004ce848 T _ZN21ir_print_glsl_visitor15print_precisionEP14ir_instructionPK9glsl_type
004d02c0 T _ZN21ir_print_glsl_visitor5visitEP10ir_discard
004cf810 T _ZN21ir_print_glsl_visitor5visitEP10ir_swizzle
004cf4f8 T _ZN21ir_print_glsl_visitor5visitEP10ir_texture
004cfd54 T _ZN21ir_print_glsl_visitor5visitEP11ir_constant
004cefb4 T _ZN21ir_print_glsl_visitor5visitEP11ir_function
004ce920 T _ZN21ir_print_glsl_visitor5visitEP11ir_variable
004d0a6c T _ZN21ir_print_glsl_visitor5visitEP12ir_loop_jump
004cfaa0 T _ZN21ir_print_glsl_visitor5visitEP13ir_assignment
004cf104 T _ZN21ir_print_glsl_visitor5visitEP13ir_expression
004cf9f8 T _ZN21ir_print_glsl_visitor5visitEP20ir_dereference_array
004cfa60 T _ZN21ir_print_glsl_visitor5visitEP21ir_dereference_record
004cec48 T _ZN21ir_print_glsl_visitor5visitEP21ir_function_signature
004d0ac0 T _ZN21ir_print_glsl_visitor5visitEP21ir_typedecl_statement
004d0aa4 T _ZN21ir_print_glsl_visitor5visitEP22ir_precision_statement
004cf9cc T _ZN21ir_print_glsl_visitor5visitEP23ir_dereference_variable
004d0324 T _ZN21ir_print_glsl_visitor5visitEP5ir_if
004d0108 T _ZN21ir_print_glsl_visitor5visitEP7ir_call
004d0584 T _ZN21ir_print_glsl_visitor5visitEP7ir_loop
004d025c T _ZN21ir_print_glsl_visitor5visitEP9ir_return
004ce72c T _ZN21ir_print_glsl_visitor6indentEv
004d0c54 W _ZN21ir_print_glsl_visitorD0Ev
004c9794 W _ZN21ir_typedecl_statement6acceptEP10ir_visitor
004ce4a4 T _ZN21ir_typedecl_statement6acceptEP23ir_hierarchical_visitor
004c9790 W _ZN21ir_typedecl_statementD0Ev
004c00ec T _ZN22_mesa_glsl_parse_state13check_versionEjjP7YYLTYPEPKcz
004c0404 T _ZN22_mesa_glsl_parse_state25process_version_directiveEP7YYLTYPEiPKc
004bf818 T _ZN22_mesa_glsl_parse_stateC1EP10gl_contextjPv
004bf818 T _ZN22_mesa_glsl_parse_stateC2EP10gl_contextjPv
004a6ab8 T _ZN22ast_compound_statement3hirEP9exec_listP22_mesa_glsl_parse_state
004c09d4 T _ZN22ast_compound_statementC1EiP8ast_node
004c09d4 T _ZN22ast_compound_statementC2EiP8ast_node
004c1c08 W _ZN22ast_compound_statementD0Ev
004dbf80 W _ZN22ir_lower_jumps_visitor21insert_lowered_returnEP9ir_return
004dc41c W _ZN22ir_lower_jumps_visitor27lower_break_unconditionallyEP14ir_instruction
004dad04 W _ZN22ir_lower_jumps_visitor5visitEP10ir_discard
004dac0c W _ZN22ir_lower_jumps_visitor5visitEP11ir_function
004dbf08 W _ZN22ir_lower_jumps_visitor5visitEP12ir_loop_jump
004da9ec W _ZN22ir_lower_jumps_visitor5visitEP21ir_function_signature
004dbf7c W _ZN22ir_lower_jumps_visitor5visitEP21ir_typedecl_statement
004dbf78 W _ZN22ir_lower_jumps_visitor5visitEP22ir_precision_statement
004dad08 W _ZN22ir_lower_jumps_visitor5visitEP5ir_if
004db9a4 W _ZN22ir_lower_jumps_visitor5visitEP7ir_loop
004daca0 W _ZN22ir_lower_jumps_visitor5visitEP9ir_return
004da9e4 W _ZN22ir_lower_jumps_visitorD0Ev
004c9778 W _ZN22ir_precision_statement6acceptEP10ir_visitor
004ce48c T _ZN22ir_precision_statement6acceptEP23ir_hierarchical_visitor
004c9774 W _ZN22ir_precision_statementD0Ev
004ec3a0 T _ZN22ir_rvalue_base_visitor12rvalue_visitEP10ir_swizzle
004ec2f8 T _ZN22ir_rvalue_base_visitor12rvalue_visitEP10ir_texture
004ec430 T _ZN22ir_rvalue_base_visitor12rvalue_visitEP13ir_assignment
004ec288 T _ZN22ir_rvalue_base_visitor12rvalue_visitEP13ir_expression
004ec3c0 T _ZN22ir_rvalue_base_visitor12rvalue_visitEP20ir_dereference_array
004ec410 T _ZN22ir_rvalue_base_visitor12rvalue_visitEP21ir_dereference_record
004ec54c T _ZN22ir_rvalue_base_visitor12rvalue_visitEP5ir_if
004ec470 T _ZN22ir_rvalue_base_visitor12rvalue_visitEP7ir_call
004ec52c T _ZN22ir_rvalue_base_visitor12rvalue_visitEP9ir_return
004a9df8 T _ZN23ast_case_statement_list3hirEP9exec_listP22_mesa_glsl_parse_state
004c1714 T _ZN23ast_case_statement_listC1Ev
004c1714 T _ZN23ast_case_statement_listC2Ev
004c1c3c W _ZN23ast_case_statement_listD0Ev
004a92e4 T _ZN23ast_function_definition3hirEP9exec_listP22_mesa_glsl_parse_state
004c1c14 W _ZN23ast_function_definitionD0Ev
004e7f20 T _ZN23ast_function_expression3hirEP9exec_listP22_mesa_glsl_parse_state
004e9b74 W _ZN23ast_function_expressionD0Ev
004aa308 T _ZN23ast_iteration_statement16condition_to_hirEP7ir_loopP22_mesa_glsl_parse_state
004aa4d0 T _ZN23ast_iteration_statement3hirEP9exec_listP22_mesa_glsl_parse_state
004c1898 T _ZN23ast_iteration_statementC1EiP8ast_nodeS1_P14ast_expressionS1_
004c1898 T _ZN23ast_iteration_statementC2EiP8ast_nodeS1_P14ast_expressionS1_
004c1c40 W _ZN23ast_iteration_statementD0Ev
004a9858 T _ZN23ast_selection_statement3hirEP9exec_listP22_mesa_glsl_parse_state
004c13cc T _ZN23ast_selection_statementC1EP14ast_expressionP8ast_nodeS3_
004c13cc T _ZN23ast_selection_statementC2EP14ast_expressionP8ast_nodeS3_
004c1c24 W _ZN23ast_selection_statementD0Ev
004d7464 W _ZN23find_assignment_visitor11visit_enterEP13ir_assignment
004d74a8 W _ZN23find_assignment_visitor11visit_enterEP7ir_call
004d7460 W _ZN23find_assignment_visitorD0Ev
004dac84 W _ZN23ir_control_flow_visitor5visitEP10ir_swizzle
004dac80 W _ZN23ir_control_flow_visitor5visitEP10ir_texture
004dac98 W _ZN23ir_control_flow_visitor5visitEP11ir_constant
004da9e8 W _ZN23ir_control_flow_visitor5visitEP11ir_variable
004dac94 W _ZN23ir_control_flow_visitor5visitEP13ir_assignment
004dac7c W _ZN23ir_control_flow_visitor5visitEP13ir_expression
004dac8c W _ZN23ir_control_flow_visitor5visitEP20ir_dereference_array
004dac90 W _ZN23ir_control_flow_visitor5visitEP21ir_dereference_record
004dac88 W _ZN23ir_control_flow_visitor5visitEP23ir_dereference_variable
004dac9c W _ZN23ir_control_flow_visitor5visitEP7ir_call
004d3c80 W _ZN23ir_decl_removal_visitor5visitEP21ir_typedecl_statement
004d3c7c W _ZN23ir_decl_removal_visitorD0Ev
004c9884 W _ZN23ir_dereference_variable23as_dereference_variableEv
004cc2dc T _ZN23ir_dereference_variable25constant_expression_valueEP10hash_table
004c9890 W _ZN23ir_dereference_variable25whole_variable_referencedEv
004c986c W _ZN23ir_dereference_variable6acceptEP10ir_visitor
004cdf8c T _ZN23ir_dereference_variable6acceptEP23ir_hierarchical_visitor
004c6d90 T _ZN23ir_dereference_variableC1EP11ir_variable
004c6d90 T _ZN23ir_dereference_variableC2EP11ir_variable
004c9868 W _ZN23ir_dereference_variableD0Ev
004cd8e0 T _ZN23ir_hierarchical_visitor11visit_enterEP10ir_discard
004cd790 T _ZN23ir_hierarchical_visitor11visit_enterEP10ir_swizzle
004cd758 T _ZN23ir_hierarchical_visitor11visit_enterEP10ir_texture
004cd6e8 T _ZN23ir_hierarchical_visitor11visit_enterEP11ir_function
004cd838 T _ZN23ir_hierarchical_visitor11visit_enterEP13ir_assignment
004cd720 T _ZN23ir_hierarchical_visitor11visit_enterEP13ir_expression
004cd7c8 T _ZN23ir_hierarchical_visitor11visit_enterEP20ir_dereference_array
004cd800 T _ZN23ir_hierarchical_visitor11visit_enterEP21ir_dereference_record
004cd6b0 T _ZN23ir_hierarchical_visitor11visit_enterEP21ir_function_signature
004cd918 T _ZN23ir_hierarchical_visitor11visit_enterEP5ir_if
004cd870 T _ZN23ir_hierarchical_visitor11visit_enterEP7ir_call
004cd678 T _ZN23ir_hierarchical_visitor11visit_enterEP7ir_loop
004cd8a8 T _ZN23ir_hierarchical_visitor11visit_enterEP9ir_return
004cd910 T _ZN23ir_hierarchical_visitor11visit_leaveEP10ir_discard
004cd7c0 T _ZN23ir_hierarchical_visitor11visit_leaveEP10ir_swizzle
004cd788 T _ZN23ir_hierarchical_visitor11visit_leaveEP10ir_texture
004cd718 T _ZN23ir_hierarchical_visitor11visit_leaveEP11ir_function
004cd868 T _ZN23ir_hierarchical_visitor11visit_leaveEP13ir_assignment
004cd750 T _ZN23ir_hierarchical_visitor11visit_leaveEP13ir_expression
004cd7f8 T _ZN23ir_hierarchical_visitor11visit_leaveEP20ir_dereference_array
004cd830 T _ZN23ir_hierarchical_visitor11visit_leaveEP21ir_dereference_record
004cd6e0 T _ZN23ir_hierarchical_visitor11visit_leaveEP21ir_function_signature
004cd948 T _ZN23ir_hierarchical_visitor11visit_leaveEP5ir_if
004cd8a0 T _ZN23ir_hierarchical_visitor11visit_leaveEP7ir_call
004cd6a8 T _ZN23ir_hierarchical_visitor11visit_leaveEP7ir_loop
004cd8d8 T _ZN23ir_hierarchical_visitor11visit_leaveEP9ir_return
004cd950 T _ZN23ir_hierarchical_visitor3runEP9exec_list
004cd588 T _ZN23ir_hierarchical_visitor5visitEP11ir_constant
004cd558 T _ZN23ir_hierarchical_visitor5visitEP11ir_variable
004cd5b8 T _ZN23ir_hierarchical_visitor5visitEP12ir_loop_jump
004cd618 T _ZN23ir_hierarchical_visitor5visitEP21ir_typedecl_statement
004cd5e8 T _ZN23ir_hierarchical_visitor5visitEP22ir_precision_statement
004cd648 T _ZN23ir_hierarchical_visitor5visitEP23ir_dereference_variable
004cd528 T _ZN23ir_hierarchical_visitor5visitEP9ir_rvalue
004cd4fc T _ZN23ir_hierarchical_visitorC1Ev
004cd4fc T _ZN23ir_hierarchical_visitorC2Ev
004cd9c8 W _ZN23ir_hierarchical_visitorD0Ev
0021f1a4 W _ZN23ir_hierarchical_visitorD2Ev
004ec968 T _ZN23ir_rvalue_enter_visitor11visit_enterEP10ir_swizzle
004ec8c0 T _ZN23ir_rvalue_enter_visitor11visit_enterEP10ir_texture
004ec9f8 T _ZN23ir_rvalue_enter_visitor11visit_enterEP13ir_assignment
004ec850 T _ZN23ir_rvalue_enter_visitor11visit_enterEP13ir_expression
004ec988 T _ZN23ir_rvalue_enter_visitor11visit_enterEP20ir_dereference_array
004ec9d8 T _ZN23ir_rvalue_enter_visitor11visit_enterEP21ir_dereference_record
004ecb14 T _ZN23ir_rvalue_enter_visitor11visit_enterEP5ir_if
004eca38 T _ZN23ir_rvalue_enter_visitor11visit_enterEP7ir_call
004ecaf4 T _ZN23ir_rvalue_enter_visitor11visit_enterEP9ir_return
004ecb38 W _ZN23ir_rvalue_enter_visitorD0Ev
004d39c0 T _ZN23ir_struct_usage_visitor5visitEP23ir_dereference_variable
004d3a38 T _ZN23ir_struct_usage_visitorC1Ev
004d3a38 T _ZN23ir_struct_usage_visitorC2Ev
004d3b68 T _ZN23ir_struct_usage_visitorD0Ev
004d3b38 T _ZN23ir_struct_usage_visitorD1Ev
004d3b38 T _ZN23ir_struct_usage_visitorD2Ev
004a6a8c T _ZN24ast_expression_statement3hirEP9exec_listP22_mesa_glsl_parse_state
004c0ea8 T _ZN24ast_expression_statementC1EP14ast_expression
004c0ea8 T _ZN24ast_expression_statementC2EP14ast_expression
004c1c0c W _ZN24ast_expression_statementD0Ev
004c1c00 W _ZN24ast_fully_specified_typeD0Ev
004a8be8 T _ZN24ast_parameter_declarator17parameters_to_hirEP9exec_listbS1_P22_mesa_glsl_parse_state
004a8894 T _ZN24ast_parameter_declarator3hirEP9exec_listP22_mesa_glsl_parse_state
004c1c04 W _ZN24ast_parameter_declaratorD0Ev
004edd9c T _ZN24program_resource_visitor11visit_fieldEPK17glsl_struct_field
004edca8 T _ZN24program_resource_visitor7processEP11ir_variable
004eda5c T _ZN24program_resource_visitor7processEPK9glsl_typePKc
004edadc T _ZN24program_resource_visitor9recursionEPK9glsl_typePPcjb
004ee81c W _ZN24program_resource_visitorD0Ev
004ed848 W _ZN24program_resource_visitorD2Ev
004dd750 T _ZN26ir_array_reference_visitor11visit_enterEP20ir_dereference_array
004dd7c4 T _ZN26ir_array_reference_visitor11visit_enterEP21ir_function_signature
004dd7e0 T _ZN26ir_array_reference_visitor14get_split_listEP9exec_listb
004dd62c T _ZN26ir_array_reference_visitor18get_variable_entryEP11ir_variable
004dd70c T _ZN26ir_array_reference_visitor5visitEP11ir_variable
004dd72c T _ZN26ir_array_reference_visitor5visitEP23ir_dereference_variable
004dde28 W _ZN26ir_array_reference_visitorD0Ev
004dddf8 W _ZN26ir_array_reference_visitorD2Ev
004dd908 T _ZN26ir_array_splitting_visitor11split_derefEPP14ir_dereference
004ddab0 T _ZN26ir_array_splitting_visitor11visit_leaveEP13ir_assignment
004dda38 T _ZN26ir_array_splitting_visitor13handle_rvalueEPP9ir_rvalue
004dd8dc T _ZN26ir_array_splitting_visitor19get_splitting_entryEP11ir_variable
004dde5c W _ZN26ir_array_splitting_visitorD0Ev
004ecc28 T _ZN26ir_variable_refcount_entryC1EP11ir_variable
004ecc28 T _ZN26ir_variable_refcount_entryC2EP11ir_variable
004d9ac4 T _ZN26lower_discard_flow_visitor11visit_enterEP10ir_discard
004d98c0 T _ZN26lower_discard_flow_visitor11visit_enterEP12ir_loop_jump
004d9c60 T _ZN26lower_discard_flow_visitor11visit_enterEP21ir_function_signature
004d9b4c T _ZN26lower_discard_flow_visitor11visit_enterEP7ir_loop
004d99e4 T _ZN26lower_discard_flow_visitor22generate_discard_breakEv
004d9ddc W _ZN26lower_discard_flow_visitorD0Ev
004da0d0 T _ZN26lower_instructions_visitor11exp_to_exp2EP13ir_expression
004da1d0 T _ZN26lower_instructions_visitor11log_to_log2EP13ir_expression
004da148 T _ZN26lower_instructions_visitor11pow_to_exp2EP13ir_expression
004da598 T _ZN26lower_instructions_visitor11visit_leaveEP13ir_expression
004da430 T _ZN26lower_instructions_visitor12lrp_to_arithEP13ir_expression
004da248 T _ZN26lower_instructions_visitor12mod_to_fractEP13ir_expression
004d9eb4 T _ZN26lower_instructions_visitor14div_to_mul_rcpEP13ir_expression
004d9e58 T _ZN26lower_instructions_visitor14sub_to_add_negEP13ir_expression
004d9f10 T _ZN26lower_instructions_visitor18int_div_to_mul_rcpEP13ir_expression
004da8f0 W _ZN26lower_instructions_visitorD0Ev
004ee920 W _ZN26parcel_out_uniform_storage11visit_fieldEPK9glsl_typePKcb
004ee598 W _ZN26parcel_out_uniform_storage15set_and_processEP17gl_shader_programP11ir_variable
004ee91c W _ZN26parcel_out_uniform_storageD0Ev
004d933c T _ZN27lower_clip_distance_visitor11visit_leaveEP13ir_assignment
004d9280 T _ZN27lower_clip_distance_visitor11visit_leaveEP20ir_dereference_array
004d9570 T _ZN27lower_clip_distance_visitor11visit_leaveEP7ir_call
004d9024 T _ZN27lower_clip_distance_visitor14create_indicesEP9ir_rvalueRS1_S2_
004d9540 T _ZN27lower_clip_distance_visitor20visit_new_assignmentEP13ir_assignment
004d8f04 T _ZN27lower_clip_distance_visitor5visitEP11ir_variable
004d98bc W _ZN27lower_clip_distance_visitorD0Ev
004ecdd0 T _ZN28ir_variable_refcount_visitor11visit_enterEP21ir_function_signature
004ecdec T _ZN28ir_variable_refcount_visitor11visit_leaveEP13ir_assignment
004ecc40 T _ZN28ir_variable_refcount_visitor18get_variable_entryEP11ir_variable
004ecd04 T _ZN28ir_variable_refcount_visitor19find_variable_entryEP11ir_variable
004ecd70 T _ZN28ir_variable_refcount_visitor5visitEP11ir_variable
004ecd90 T _ZN28ir_variable_refcount_visitor5visitEP23ir_dereference_variable
004ecb3c T _ZN28ir_variable_refcount_visitorC1Ev
004ecb3c T _ZN28ir_variable_refcount_visitorC2Ev
004ecbe0 T _ZN28ir_variable_refcount_visitorD0Ev
004ecb8c T _ZN28ir_variable_refcount_visitorD1Ev
004ecb8c T _ZN28ir_variable_refcount_visitorD2Ev
004f0560 T _ZN29lower_packed_varyings_visitor12lower_rvalueEP9ir_rvaluejP11ir_variablePKc
004f053c T _ZN29lower_packed_varyings_visitor14needs_loweringEP11ir_variable
004f0b28 T _ZN29lower_packed_varyings_visitor15lower_arraylikeEP9ir_rvaluejjP11ir_variablePKc
004f0bf8 T _ZN29lower_packed_varyings_visitor18get_packed_varyingEjP11ir_variablePKc
004f09a8 T _ZN29lower_packed_varyings_visitor19bitwise_assign_packEP9ir_rvalueS1_
004f0a68 T _ZN29lower_packed_varyings_visitor21bitwise_assign_unpackEP9ir_rvalueS1_
004f0458 T _ZN29lower_packed_varyings_visitor3runEP9exec_list
004f0420 T _ZN29lower_packed_varyings_visitorC1EPvjj16ir_variable_modeP9exec_list
004f0420 T _ZN29lower_packed_varyings_visitorC2EPvjj16ir_variable_modeP9exec_list
004f03b8 W _ZN29tfeedback_candidate_generator11visit_fieldEPK9glsl_typePKcb
004f03b4 W _ZN29tfeedback_candidate_generatorD0Ev
00169ecc T _ZN2os3logEPKcz
004eab00 T _ZN30ir_function_can_inline_visitor11visit_enterEP9ir_return
004eabe4 W _ZN30ir_function_can_inline_visitorD0Ev
004e1a18 T _ZN30ir_sampler_replacement_visitor11visit_leaveEP10ir_texture
004e1a88 T _ZN30ir_sampler_replacement_visitor11visit_leaveEP20ir_dereference_array
004e1b18 T _ZN30ir_sampler_replacement_visitor11visit_leaveEP21ir_dereference_record
004e1ba8 T _ZN30ir_sampler_replacement_visitor11visit_leaveEP7ir_call
004e1928 T _ZN30ir_sampler_replacement_visitor13replace_derefEPP14ir_dereference
004e198c T _ZN30ir_sampler_replacement_visitor14replace_rvalueEPP9ir_rvalue
004e1c90 W _ZN30ir_sampler_replacement_visitorD0Ev
004dc630 T _ZN31ir_vec_index_to_swizzle_visitor11visit_enterEP10ir_swizzle
004dc650 T _ZN31ir_vec_index_to_swizzle_visitor11visit_enterEP13ir_assignment
004dc5c8 T _ZN31ir_vec_index_to_swizzle_visitor11visit_enterEP13ir_expression
004dc730 T _ZN31ir_vec_index_to_swizzle_visitor11visit_enterEP5ir_if
004dc68c T _ZN31ir_vec_index_to_swizzle_visitor11visit_enterEP7ir_call
004dc708 T _ZN31ir_vec_index_to_swizzle_visitor11visit_enterEP9ir_return
004dc4dc T _ZN31ir_vec_index_to_swizzle_visitor28convert_vec_index_to_swizzleEP9ir_rvalue
004dc7bc W _ZN31ir_vec_index_to_swizzle_visitorD0Ev
004f9548 T _ZN33link_uniform_block_active_visitor11visit_enterEP20ir_dereference_array
004f9694 T _ZN33link_uniform_block_active_visitor5visitEP23ir_dereference_variable
004f9714 W _ZN33link_uniform_block_active_visitorD0Ev
0016c2f8 W _ZN5boost5print11string_listINSt6__ndk112basic_stringIcNS2_11char_traitsIcEENS2_9allocatorIcEEEEE14push_back_swapERS8_
00191fc8 W _ZN5boost5print11string_listINSt6__ndk112basic_stringIcNS2_11char_traitsIcEENS2_9allocatorIcEEEEE5splitEPKcc
001bb2c0 W _ZN5boost5print11string_listINSt6__ndk112basic_stringIcNS2_11char_traitsIcEENS2_9allocatorIcEEEEE5splitERKS8_c
001909b4 W _ZN5boost5print11string_listINSt6__ndk112basic_stringIcNS2_11char_traitsIcEENS2_9allocatorIcEEEEE9push_backEPKc
000f67a8 W _ZN5boost5print11string_listINSt6__ndk112basic_stringIcNS2_11char_traitsIcEENS2_9allocatorIcEEEEElsIiEERS9_T_
000e318c W _ZN5boost5print11string_listINSt6__ndk112basic_stringIcNS2_11char_traitsIcEENS2_9allocatorIcEEEEElsIjEERS9_T_
000e2fc8 W _ZN5boost5print11string_listINSt6__ndk112basic_stringIcNS2_11char_traitsIcEENS2_9allocatorIcEEEEElsIPKcEERS9_T_
000f7150 W _ZN5boost5print11string_listINSt6__ndk112basic_stringIcNS2_11char_traitsIcEENS2_9allocatorIcEEEEElsIS8_EERS9_T_
0024df84 W _ZN5boost5print11string_listINSt6__ndk112basic_stringIcNS2_11char_traitsIcEENS2_9allocatorIcEEEEEpLIjEERS9_T_
0024ddc0 W _ZN5boost5print11string_listINSt6__ndk112basic_stringIcNS2_11char_traitsIcEENS2_9allocatorIcEEEEEpLIPKcEERS9_T_
001710ac W _ZN5boost5print4json6outputINSt6__ndk112basic_stringIcNS3_11char_traitsIcEENS3_9allocatorIcEEEEE3endEv
00485f48 W _ZN5boost5print5printIA10_cA16_cNSt6__ndk112basic_stringIcNS4_11char_traitsIcEENS4_9allocatorIcEEEEEEjRT1_RKT_RKT0_
00186100 W _ZN5boost5print5printIA10_cPKcA17_cfA3_cS4_NSt6__ndk112basic_stringIcNS7_11char_traitsIcEENS7_9allocatorIcEEEEEEjRT5_RKT_RKT0_RKT1_RKT2_RKT3_RKT4_
00185e24 W _ZN5boost5print5printIA10_cPKcA19_cfA3_cS4_NSt6__ndk112basic_stringIcNS7_11char_traitsIcEENS7_9allocatorIcEEEEEEjRT5_RKT_RKT0_RKT1_RKT2_RKT3_RKT4_
00185454 W _ZN5boost5print5printIA10_cPKcA24_cfA3_cS4_NSt6__ndk112basic_stringIcNS7_11char_traitsIcEENS7_9allocatorIcEEEEEEjRT5_RKT_RKT0_RKT1_RKT2_RKT3_RKT4_
00185178 W _ZN5boost5print5printIA10_cPKcA26_cfA3_cS4_NSt6__ndk112basic_stringIcNS7_11char_traitsIcEENS7_9allocatorIcEEEEEEjRT5_RKT_RKT0_RKT1_RKT2_RKT3_RKT4_
00185730 W _ZN5boost5print5printIA10_cPKcA27_cfA3_cS4_NSt6__ndk112basic_stringIcNS7_11char_traitsIcEENS7_9allocatorIcEEEEEEjRT5_RKT_RKT0_RKT1_RKT2_RKT3_RKT4_
004912f4 W _ZN5boost5print5printIA101_cNSt6__ndk112basic_stringIcNS3_11char_traitsIcEENS3_9allocatorIcEEEEEEjRT0_RKT_
00490e8c W _ZN5boost5print5printIA106_cNSt6__ndk112basic_stringIcNS3_11char_traitsIcEENS3_9allocatorIcEEEEEEjRT0_RKT_
00485c00 W _ZN5boost5print5printIA11_cA16_cNSt6__ndk112basic_stringIcNS4_11char_traitsIcEENS4_9allocatorIcEEEEEEjRT1_RKT_RKT0_
000f8ccc W _ZN5boost5print5printIA11_ciNSt6__ndk112basic_stringIcNS3_11char_traitsIcEENS3_9allocatorIcEEEEEEjRT1_RKT_RKT0_
00184810 W _ZN5boost5print5printIA11_cPKcA14_cfA2_cfS6_fS6_fA4_cS4_NSt6__ndk112basic_stringIcNS8_11char_traitsIcEENS8_9allocatorIcEEEEEEjRT11_RKT_RKT0_RKT1_RKT2_RKT3_RKT4_RKT5_RKT6_RKT7_RKT8_RKT9_RKT10_
00184cc4 W _ZN5boost5print5printIA11_cPKcA15_cfA2_cfS6_fS6_fA4_cS4_NSt6__ndk112basic_stringIcNS8_11char_traitsIcEENS8_9allocatorIcEEEEEEjRT11_RKT_RKT0_RKT1_RKT2_RKT3_RKT4_RKT5_RKT6_RKT7_RKT8_RKT9_RKT10_
00185a0c W _ZN5boost5print5printIA11_cPKcA21_cfA2_cfS6_fA4_cS4_NSt6__ndk112basic_stringIcNS8_11char_traitsIcEENS8_9allocatorIcEEEEEEjRT9_RKT_RKT0_RKT1_RKT2_RKT3_RKT4_RKT5_RKT6_RKT7_RKT8_
0017d8b4 W _ZN5boost5print5printIA11_cPKcA3_cS4_NSt6__ndk112basic_stringIcNS6_11char_traitsIcEENS6_9allocatorIcEEEEEEjRT3_RKT_RKT0_RKT1_RKT2_
00490948 W _ZN5boost5print5printIA113_cNSt6__ndk112basic_stringIcNS3_11char_traitsIcEENS3_9allocatorIcEEEEEEjRT0_RKT_
004859d0 W _ZN5boost5print5printIA12_cA16_cNSt6__ndk112basic_stringIcNS4_11char_traitsIcEENS4_9allocatorIcEEEEEEjRT1_RKT_RKT0_
00186a94 W _ZN5boost5print5printIA12_cjA3_cPKcNSt6__ndk112basic_stringIcNS6_11char_traitsIcEENS6_9allocatorIcEEEEEEjRT3_RKT_RKT0_RKT1_RKT2_
0018988c W _ZN5boost5print5printIA12_cPKcA3_cS4_NSt6__ndk112basic_stringIcNS6_11char_traitsIcEENS6_9allocatorIcEEEEEEjRT3_RKT_RKT0_RKT1_RKT2_
0018e62c W _ZN5boost5print5printIA12_cPKcNSt6__ndk112basic_stringIcNS5_11char_traitsIcEENS5_9allocatorIcEEEEEEjRT1_RKT_RKT0_
00485d18 W _ZN5boost5print5printIA13_cA16_cNSt6__ndk112basic_stringIcNS4_11char_traitsIcEENS4_9allocatorIcEEEEEEjRT1_RKT_RKT0_
00188a68 W _ZN5boost5print5printIA13_cfA2_cfA3_cPKcNSt6__ndk112basic_stringIcNS7_11char_traitsIcEENS7_9allocatorIcEEEEEEjRT5_RKT_RKT0_RKT1_RKT2_RKT3_RKT4_
001863dc W _ZN5boost5print5printIA13_cfA3_cPKcNSt6__ndk112basic_stringIcNS6_11char_traitsIcEENS6_9allocatorIcEEEEEEjRT3_RKT_RKT0_RKT1_RKT2_
0017f7a8 W _ZN5boost5print5printIA13_cjA2_cdS3_dA3_cPKcNSt6__ndk112basic_stringIcNS7_11char_traitsIcEENS7_9allocatorIcEEEEEEjRT7_RKT_RKT0_RKT1_RKT2_RKT3_RKT4_RKT5_RKT6_
0017fcbc W _ZN5boost5print5printIA13_cjA2_cdS3_djS3_dS3_dA3_cPKcNSt6__ndk112basic_stringIcNS7_11char_traitsIcEENS7_9allocatorIcEEEEEEjRT12_RKT_RKT0_RKT1_RKT2_RKT3_RKT4_RKT5_RKT6_RKT7_RKT8_RKT9_RKT10_RKT11_
00183790 W _ZN5boost5print5printIA13_cPKcA15_cfA3_cS4_NSt6__ndk112basic_stringIcNS7_11char_traitsIcEENS7_9allocatorIcEEEEEEjRT5_RKT_RKT0_RKT1_RKT2_RKT3_RKT4_
0017c680 W _ZN5boost5print5printIA13_cPKcA2_cfA3_cS4_NSt6__ndk112basic_stringIcNS7_11char_traitsIcEENS7_9allocatorIcEEEEEEjRT5_RKT_RKT0_RKT1_RKT2_RKT3_RKT4_
0017ef28 W _ZN5boost5print5printIA13_cPKcA3_cS4_NSt6__ndk112basic_stringIcNS6_11char_traitsIcEENS6_9allocatorIcEEEEEEjRT3_RKT_RKT0_RKT1_RKT2_
0018c754 W _ZN5boost5print5printIA13_cPKcA5_cdA3_cdS6_dS6_dS5_S4_NSt6__ndk112basic_stringIcNS7_11char_traitsIcEENS7_9allocatorIcEEEEEEjRT11_RKT_RKT0_RKT1_RKT2_RKT3_RKT4_RKT5_RKT6_RKT7_RKT8_RKT9_RKT10_
00486178 W _ZN5boost5print5printIA14_cA16_cNSt6__ndk112basic_stringIcNS4_11char_traitsIcEENS4_9allocatorIcEEEEEEjRT1_RKT_RKT0_
00194674 W _ZN5boost5print5printIA14_cA33_cNSt6__ndk112basic_stringIcNS4_11char_traitsIcEENS4_9allocatorIcEEEEEEjRT1_RKT_RKT0_
0017f0cc W _ZN5boost5print5printIA14_cdA3_cPKcNSt6__ndk112basic_stringIcNS6_11char_traitsIcEENS6_9allocatorIcEEEEEEjRT3_RKT_RKT0_RKT1_RKT2_
0017bce8 W _ZN5boost5print5printIA14_cfA2_cfS3_fS3_fA3_cPKcNSt6__ndk112basic_stringIcNS7_11char_traitsIcEENS7_9allocatorIcEEEEEEjRT9_RKT_RKT0_RKT1_RKT2_RKT3_RKT4_RKT5_RKT6_RKT7_RKT8_
0017e468 W _ZN5boost5print5printIA14_cfA3_cPKcNSt6__ndk112basic_stringIcNS6_11char_traitsIcEENS6_9allocatorIcEEEEEEjRT3_RKT_RKT0_RKT1_RKT2_
0017dc9c W _ZN5boost5print5printIA14_cjA2_chS3_hS3_hS3_hA3_cPKcNSt6__ndk112basic_stringIcNS7_11char_traitsIcEENS7_9allocatorIcEEEEEEjRT11_RKT_RKT0_RKT1_RKT2_RKT3_RKT4_RKT5_RKT6_RKT7_RKT8_RKT9_RKT10_
001832dc W _ZN5boost5print5printIA14_cPKcA15_cfA2_cfS6_fS6_fA4_cS4_NSt6__ndk112basic_stringIcNS8_11char_traitsIcEENS8_9allocatorIcEEEEEEjRT11_RKT_RKT0_RKT1_RKT2_RKT3_RKT4_RKT5_RKT6_RKT7_RKT8_RKT9_RKT10_
00183a6c W _ZN5boost5print5printIA14_cPKcA20_cfA2_cfS6_fA4_cS4_NSt6__ndk112basic_stringIcNS8_11char_traitsIcEENS8_9allocatorIcEEEEEEjRT9_RKT_RKT0_RKT1_RKT2_RKT3_RKT4_RKT5_RKT6_RKT7_RKT8_
00491044 W _ZN5boost5print5printIA14_cPKcA27_cNSt6__ndk112basic_stringIcNS6_11char_traitsIcEENS6_9allocatorIcEEEEEEjRT2_RKT_RKT0_RKT1_
001828a8 W _ZN5boost5print5printIA14_cPKcA3_cS4_NSt6__ndk112basic_stringIcNS6_11char_traitsIcEENS6_9allocatorIcEEEEEEjRT3_RKT_RKT0_RKT1_RKT2_
00182e28 W _ZN5boost5print5printIA14_cPKcS2_fA2_cfS5_fS5_fA4_cS4_NSt6__ndk112basic_stringIcNS7_11char_traitsIcEENS7_9allocatorIcEEEEEEjRT11_RKT_RKT0_RKT1_RKT2_RKT3_RKT4_RKT5_RKT6_RKT7_RKT8_RKT9_RKT10_
002e1378 W _ZN5boost5print5printIA142_cNSt6__ndk112basic_stringIcNS3_11char_traitsIcEENS3_9allocatorIcEEEEEEjRT0_RKT_
00485e30 W _ZN5boost5print5printIA15_cA16_cNSt6__ndk112basic_stringIcNS4_11char_traitsIcEENS4_9allocatorIcEEEEEEjRT1_RKT_RKT0_
0017ec1c W _ZN5boost5print5printIA15_ciA20_cPKcNSt6__ndk112basic_stringIcNS6_11char_traitsIcEENS6_9allocatorIcEEEEEEjRT3_RKT_RKT0_RKT1_RKT2_
001865d4 W _ZN5boost5print5printIA15_ciA4_cNS0_6detail3hexItEEA3_cPKcNSt6__ndk112basic_stringIcNSA_11char_traitsIcEENSA_9allocatorIcEEEEEEjRT5_RKT_RKT0_RKT1_RKT2_RKT3_RKT4_
0017e660 W _ZN5boost5print5printIA15_ciA4_cNSt6__ndk112basic_stringIcNS4_11char_traitsIcEENS4_9allocatorIcEEEEEEjRT2_RKT_RKT0_RKT1_
0017da58 W _ZN5boost5print5printIA15_cNS0_6detail3hexIjEEA3_cPKcNSt6__ndk112basic_stringIcNS9_11char_traitsIcEENS9_9allocatorIcEEEEEEjRT3_RKT_RKT0_RKT1_RKT2_
00491930 W _ZN5boost5print5printIA15_cPKcA27_cNSt6__ndk112basic_stringIcNS6_11char_traitsIcEENS6_9allocatorIcEEEEEEjRT2_RKT_RKT0_RKT1_
00491680 W _ZN5boost5print5printIA15_cPKcA52_cNSt6__ndk112basic_stringIcNS6_11char_traitsIcEENS6_9allocatorIcEEEEEEjRT2_RKT_RKT0_RKT1_
004913d0 W _ZN5boost5print5printIA15_cPKcA55_cNSt6__ndk112basic_stringIcNS6_11char_traitsIcEENS6_9allocatorIcEEEEEEjRT2_RKT_RKT0_RKT1_
004917d8 W _ZN5boost5print5printIA15_cPKcA73_cNSt6__ndk112basic_stringIcNS6_11char_traitsIcEENS6_9allocatorIcEEEEEEjRT2_RKT_RKT0_RKT1_
00491528 W _ZN5boost5print5printIA15_cPKcA76_cNSt6__ndk112basic_stringIcNS6_11char_traitsIcEENS6_9allocatorIcEEEEEEjRT2_RKT_RKT0_RKT1_
0018b648 W _ZN5boost5print5printIA16_ciA3_cPKcNSt6__ndk112basic_stringIcNS6_11char_traitsIcEENS6_9allocatorIcEEEEEEjRT3_RKT_RKT0_RKT1_RKT2_
0019103c W _ZN5boost5print5printIA16_cPKcA15_ciA4_cPcNSt6__ndk112basic_stringIcNS8_11char_traitsIcEENS8_9allocatorIcEEEEEEjRT5_RKT_RKT0_RKT1_RKT2_RKT3_RKT4_
004907f0 W _ZN5boost5print5printIA16_cPKcA27_cNSt6__ndk112basic_stringIcNS6_11char_traitsIcEENS6_9allocatorIcEEEEEEjRT2_RKT_RKT0_RKT1_
00486060 W _ZN5boost5print5printIA16_cS2_NSt6__ndk112basic_stringIcNS3_11char_traitsIcEENS3_9allocatorIcEEEEEEjRT1_RKT_RKT0_
004863a8 W _ZN5boost5print5printIA17_cA16_cNSt6__ndk112basic_stringIcNS4_11char_traitsIcEENS4_9allocatorIcEEEEEEjRT1_RKT_RKT0_
00189d78 W _ZN5boost5print5printIA17_cfA2_cfA3_cPKcNSt6__ndk112basic_stringIcNS7_11char_traitsIcEENS7_9allocatorIcEEEEEEjRT5_RKT_RKT0_RKT1_RKT2_RKT3_RKT4_
002cf064 W _ZN5boost5print5printIA17_cNSt6__ndk112basic_stringIcNS3_11char_traitsIcEENS3_9allocatorIcEEEEEEjRT0_RKT_
00182bf0 W _ZN5boost5print5printIA17_cPKcA2_cS4_A3_cS4_NSt6__ndk112basic_stringIcNS7_11char_traitsIcEENS7_9allocatorIcEEEEEEjRT5_RKT_RKT0_RKT1_RKT2_RKT3_RKT4_
00486a38 W _ZN5boost5print5printIA18_cA16_cNSt6__ndk112basic_stringIcNS4_11char_traitsIcEENS4_9allocatorIcEEEEEEjRT1_RKT_RKT0_
00186d80 W _ZN5boost5print5printIA18_cfA2_chA3_cPKcNSt6__ndk112basic_stringIcNS7_11char_traitsIcEENS7_9allocatorIcEEEEEEjRT5_RKT_RKT0_RKT1_RKT2_RKT3_RKT4_
00490d34 W _ZN5boost5print5printIA18_cPKcA28_cNSt6__ndk112basic_stringIcNS6_11char_traitsIcEENS6_9allocatorIcEEEEEEjRT2_RKT_RKT0_RKT1_
00190f20 W _ZN5boost5print5printIA18_cPKcNSt6__ndk112basic_stringIcNS5_11char_traitsIcEENS5_9allocatorIcEEEEEEjRT1_RKT_RKT0_
00486b50 W _ZN5boost5print5printIA19_cA16_cNSt6__ndk112basic_stringIcNS4_11char_traitsIcEENS4_9allocatorIcEEEEEEjRT1_RKT_RKT0_
00180d18 W _ZN5boost5print5printIA19_cfA3_cPKcNSt6__ndk112basic_stringIcNS6_11char_traitsIcEENS6_9allocatorIcEEEEEEjRT3_RKT_RKT0_RKT1_RKT2_
0018b074 W _ZN5boost5print5printIA19_cjA21_cPKcNSt6__ndk112basic_stringIcNS6_11char_traitsIcEENS6_9allocatorIcEEEEEEjRT3_RKT_RKT0_RKT1_RKT2_
0018a408 W _ZN5boost5print5printIA19_cjA5_ciA2_ciS4_iS4_iA6_cPKcNSt6__ndk112basic_stringIcNS8_11char_traitsIcEENS8_9allocatorIcEEEEEEjRT11_RKT_RKT0_RKT1_RKT2_RKT3_RKT4_RKT5_RKT6_RKT7_RKT8_RKT9_RKT10_
0018a014 W _ZN5boost5print5printIA19_cNSt6__ndk112basic_stringIcNS3_11char_traitsIcEENS3_9allocatorIcEEEEEEjRT0_RKT_
00182a4c W _ZN5boost5print5printIA19_cPKcA3_cS4_NSt6__ndk112basic_stringIcNS6_11char_traitsIcEENS6_9allocatorIcEEEEEEjRT3_RKT_RKT0_RKT1_RKT2_
0018960c W _ZN5boost5print5printIA19_cPKcA35_chA3_cS4_NSt6__ndk112basic_stringIcNS7_11char_traitsIcEENS7_9allocatorIcEEEEEEjRT5_RKT_RKT0_RKT1_RKT2_RKT3_RKT4_
0016f018 W _ZN5boost5print5printIA2_cNS0_6detail3padIcEES2_NSt6__ndk112basic_stringIcNS6_11char_traitsIcEENS6_9allocatorIcEEEEEEjRT2_RKT_RKT0_RKT1_
0017ea78 W _ZN5boost5print5printIA2_cPKcA4_cS4_NSt6__ndk112basic_stringIcNS6_11char_traitsIcEENS6_9allocatorIcEEEEEEjRT3_RKT_RKT0_RKT1_RKT2_
0017e920 W _ZN5boost5print5printIA2_cPKcS2_NSt6__ndk112basic_stringIcNS5_11char_traitsIcEENS5_9allocatorIcEEEEEEjRT2_RKT_RKT0_RKT1_
004865d8 W _ZN5boost5print5printIA20_cA16_cNSt6__ndk112basic_stringIcNS4_11char_traitsIcEENS4_9allocatorIcEEEEEEjRT1_RKT_RKT0_
001870ac W _ZN5boost5print5printIA20_cfA3_cPKcNSt6__ndk112basic_stringIcNS6_11char_traitsIcEENS6_9allocatorIcEEEEEEjRT3_RKT_RKT0_RKT1_RKT2_
0019367c W _ZN5boost5print5printIA20_cjNSt6__ndk112basic_stringIcNS3_11char_traitsIcEENS3_9allocatorIcEEEEEEjRT1_RKT_RKT0_
00193558 W _ZN5boost5print5printIA20_cNSt6__ndk112basic_stringIcNS3_11char_traitsIcEENS3_9allocatorIcEEEES9_EEjRT1_RKT_RKT0_
00180f10 W _ZN5boost5print5printIA20_cPKcA3_cS4_NSt6__ndk112basic_stringIcNS6_11char_traitsIcEENS6_9allocatorIcEEEEEEjRT3_RKT_RKT0_RKT1_RKT2_
00486920 W _ZN5boost5print5printIA21_cA16_cNSt6__ndk112basic_stringIcNS4_11char_traitsIcEENS4_9allocatorIcEEEEEEjRT1_RKT_RKT0_
00180928 W _ZN5boost5print5printIA21_cfA3_cPKcNSt6__ndk112basic_stringIcNS6_11char_traitsIcEENS6_9allocatorIcEEEEEEjRT3_RKT_RKT0_RKT1_RKT2_
0018d558 W _ZN5boost5print5printIA21_cjA2_cdS3_dA3_cPKcNSt6__ndk112basic_stringIcNS7_11char_traitsIcEENS7_9allocatorIcEEEEEEjRT7_RKT_RKT0_RKT1_RKT2_RKT3_RKT4_RKT5_RKT6_
0018cbe8 W _ZN5boost5print5printIA21_cjA5_cfA2_cfS4_fS4_fA6_cPKcNSt6__ndk112basic_stringIcNS8_11char_traitsIcEENS8_9allocatorIcEEEEEEjRT11_RKT_RKT0_RKT1_RKT2_RKT3_RKT4_RKT5_RKT6_RKT7_RKT8_RKT9_RKT10_
0018d26c W _ZN5boost5print5printIA21_cjS2_PKcNSt6__ndk112basic_stringIcNS5_11char_traitsIcEENS5_9allocatorIcEEEEEEjRT3_RKT_RKT0_RKT1_RKT2_
0018eacc W _ZN5boost5print5printIA21_cNSt6__ndk112basic_stringIcNS3_11char_traitsIcEENS3_9allocatorIcEEEEPKcS9_EEjRT2_RKT_RKT0_RKT1_
001c0fe8 W _ZN5boost5print5printIA21_cPKcA2_cS4_NSt6__ndk112basic_stringIcNS6_11char_traitsIcEENS6_9allocatorIcEEEEEEjRT3_RKT_RKT0_RKT1_RKT2_
0018c32c W _ZN5boost5print5printIA21_cPKcA2_cS4_S5_S4_S5_S4_A3_cS4_NSt6__ndk112basic_stringIcNS7_11char_traitsIcEENS7_9allocatorIcEEEEEEjRT9_RKT_RKT0_RKT1_RKT2_RKT3_RKT4_RKT5_RKT6_RKT7_RKT8_
0048c514 W _ZN5boost5print5printIA21_cPKcNSt6__ndk112basic_stringIcNS5_11char_traitsIcEENS5_9allocatorIcEEEEEEjRT1_RKT_RKT0_
00486808 W _ZN5boost5print5printIA22_cA16_cNSt6__ndk112basic_stringIcNS4_11char_traitsIcEENS4_9allocatorIcEEEEEEjRT1_RKT_RKT0_
0048c70c W _ZN5boost5print5printIA22_cbNSt6__ndk112basic_stringIcNS3_11char_traitsIcEENS3_9allocatorIcEEEEEEjRT1_RKT_RKT0_
0017cd88 W _ZN5boost5print5printIA22_cjA2_cPKcS3_S5_S3_S5_S3_S5_A3_cS5_NSt6__ndk112basic_stringIcNS7_11char_traitsIcEENS7_9allocatorIcEEEEEEjRT11_RKT_RKT0_RKT1_RKT2_RKT3_RKT4_RKT5_RKT6_RKT7_RKT8_RKT9_RKT10_
0048c844 W _ZN5boost5print5printIA22_clNSt6__ndk112basic_stringIcNS3_11char_traitsIcEENS3_9allocatorIcEEEEEEjRT1_RKT_RKT0_
0048cac8 W _ZN5boost5print5printIA22_cNSt6__ndk112basic_stringIcNS3_11char_traitsIcEENS3_9allocatorIcEEEES9_EEjRT1_RKT_RKT0_
00486c68 W _ZN5boost5print5printIA23_cA16_cNSt6__ndk112basic_stringIcNS4_11char_traitsIcEENS4_9allocatorIcEEEEEEjRT1_RKT_RKT0_
001804c8 W _ZN5boost5print5printIA23_cfA2_cfS3_fS3_fS3_A5_cPKcNSt6__ndk112basic_stringIcNS7_11char_traitsIcEENS7_9allocatorIcEEEEEEjRT10_RKT_RKT0_RKT1_RKT2_RKT3_RKT4_RKT5_RKT6_RKT7_RKT8_RKT9_
00180b20 W _ZN5boost5print5printIA23_cfA3_cPKcNSt6__ndk112basic_stringIcNS6_11char_traitsIcEENS6_9allocatorIcEEEEEEjRT3_RKT_RKT0_RKT1_RKT2_
00190e44 W _ZN5boost5print5printIA23_cNSt6__ndk112basic_stringIcNS3_11char_traitsIcEENS3_9allocatorIcEEEEEEjRT0_RKT_
0018f1fc W _ZN5boost5print5printIA23_cNSt6__ndk112basic_stringIcNS3_11char_traitsIcEENS3_9allocatorIcEEEEPKcS9_EEjRT2_RKT_RKT0_RKT1_
0018b954 W _ZN5boost5print5printIA23_cPKcA2_cS4_S5_iA4_cNS0_6detail3hexIjEEA3_cS4_NSt6__ndk112basic_stringIcNSB_11char_traitsIcEENSB_9allocatorIcEEEEEEjRT9_RKT_RKT0_RKT1_RKT2_RKT3_RKT4_RKT5_RKT6_RKT7_RKT8_
00189bd4 W _ZN5boost5print5printIA23_cPKcA3_cS4_NSt6__ndk112basic_stringIcNS6_11char_traitsIcEENS6_9allocatorIcEEEEEEjRT3_RKT_RKT0_RKT1_RKT2_
0018c060 W _ZN5boost5print5printIA23_cPKcA4_cNS0_6detail3hexIjEEA3_cS4_NSt6__ndk112basic_stringIcNSA_11char_traitsIcEENSA_9allocatorIcEEEEEEjRT5_RKT_RKT0_RKT1_RKT2_RKT3_RKT4_
00486e98 W _ZN5boost5print5printIA24_cA16_cNSt6__ndk112basic_stringIcNS4_11char_traitsIcEENS4_9allocatorIcEEEEEEjRT1_RKT_RKT0_
0018f08c W _ZN5boost5print5printIA24_cNSt6__ndk112basic_stringIcNS3_11char_traitsIcEENS3_9allocatorIcEEEEPKcS9_EEjRT2_RKT_RKT0_RKT1_
0049119c W _ZN5boost5print5printIA24_cPKcA100_cNSt6__ndk112basic_stringIcNS6_11char_traitsIcEENS6_9allocatorIcEEEEEEjRT2_RKT_RKT0_RKT1_
00189a30 W _ZN5boost5print5printIA24_cPKcA3_cS4_NSt6__ndk112basic_stringIcNS6_11char_traitsIcEENS6_9allocatorIcEEEEEEjRT3_RKT_RKT0_RKT1_RKT2_
00491a88 W _ZN5boost5print5printIA24_cPKcA51_cNSt6__ndk112basic_stringIcNS6_11char_traitsIcEENS6_9allocatorIcEEEEEEjRT2_RKT_RKT0_RKT1_
00490698 W _ZN5boost5print5printIA24_cPKcA60_cNSt6__ndk112basic_stringIcNS6_11char_traitsIcEENS6_9allocatorIcEEEEEEjRT2_RKT_RKT0_RKT1_
004866f0 W _ZN5boost5print5printIA25_cA16_cNSt6__ndk112basic_stringIcNS4_11char_traitsIcEENS4_9allocatorIcEEEEEEjRT1_RKT_RKT0_
0048c630 W _ZN5boost5print5printIA25_cNSt6__ndk112basic_stringIcNS3_11char_traitsIcEENS3_9allocatorIcEEEEEEjRT0_RKT_
0018edac W _ZN5boost5print5printIA25_cNSt6__ndk112basic_stringIcNS3_11char_traitsIcEENS3_9allocatorIcEEEEPKcS9_EEjRT2_RKT_RKT0_RKT1_
002cfb34 W _ZN5boost5print5printIA25_cPKcA11_cNSt6__ndk112basic_stringIcNS6_11char_traitsIcEENS6_9allocatorIcEEEEEEjRT2_RKT_RKT0_RKT1_
001810b4 W _ZN5boost5print5printIA25_cPKcA3_cS4_NSt6__ndk112basic_stringIcNS6_11char_traitsIcEENS6_9allocatorIcEEEEEEjRT3_RKT_RKT0_RKT1_RKT2_
00486d80 W _ZN5boost5print5printIA26_cA16_cNSt6__ndk112basic_stringIcNS4_11char_traitsIcEENS4_9allocatorIcEEEEEEjRT1_RKT_RKT0_
0017d3f8 W _ZN5boost5print5printIA26_cjA2_cPKcS3_S5_A3_cS5_NSt6__ndk112basic_stringIcNS7_11char_traitsIcEENS7_9allocatorIcEEEEEEjRT7_RKT_RKT0_RKT1_RKT2_RKT3_RKT4_RKT5_RKT6_
0018ef1c W _ZN5boost5print5printIA26_cNSt6__ndk112basic_stringIcNS3_11char_traitsIcEENS3_9allocatorIcEEEEPKcS9_EEjRT2_RKT_RKT0_RKT1_
000f93d4 W _ZN5boost5print5printIA26_cPKcNSt6__ndk112basic_stringIcNS5_11char_traitsIcEENS5_9allocatorIcEEEEEEjRT1_RKT_RKT0_
00486fb0 W _ZN5boost5print5printIA27_cA16_cNSt6__ndk112basic_stringIcNS4_11char_traitsIcEENS4_9allocatorIcEEEEEEjRT1_RKT_RKT0_
001a268c W _ZN5boost5print5printIA27_ciNSt6__ndk112basic_stringIcNS3_11char_traitsIcEENS3_9allocatorIcEEEEEEjRT1_RKT_RKT0_
0018f7bc W _ZN5boost5print5printIA27_cNSt6__ndk112basic_stringIcNS3_11char_traitsIcEENS3_9allocatorIcEEEEPKcS9_EEjRT2_RKT_RKT0_RKT1_
002c55cc W _ZN5boost5print5printIA27_cPKcA13_cNSt6__ndk112basic_stringIcNS6_11char_traitsIcEENS6_9allocatorIcEEEEEEjRT2_RKT_RKT0_RKT1_
0016ddb4 W _ZN5boost5print5printIA27_cPKcNSt6__ndk112basic_stringIcNS5_11char_traitsIcEENS5_9allocatorIcEEEEEEjRT1_RKT_RKT0_
004871e0 W _ZN5boost5print5printIA28_cA16_cNSt6__ndk112basic_stringIcNS4_11char_traitsIcEENS4_9allocatorIcEEEEEEjRT1_RKT_RKT0_
0048e580 W _ZN5boost5print5printIA28_cjA5_ciNSt6__ndk112basic_stringIcNS4_11char_traitsIcEENS4_9allocatorIcEEEEEEjRT3_RKT_RKT0_RKT1_RKT2_
002dc6dc W _ZN5boost5print5printIA28_cjA5_cjA33_cNSt6__ndk112basic_stringIcNS5_11char_traitsIcEENS5_9allocatorIcEEEEEEjRT4_RKT_RKT0_RKT1_RKT2_RKT3_
000f94f0 W _ZN5boost5print5printIA28_cNSt6__ndk112basic_stringIcNS3_11char_traitsIcEENS3_9allocatorIcEEEEA4_cS9_S9_EEjRT3_RKT_RKT0_RKT1_RKT2_
0018f36c W _ZN5boost5print5printIA28_cNSt6__ndk112basic_stringIcNS3_11char_traitsIcEENS3_9allocatorIcEEEEPKcS9_EEjRT2_RKT_RKT0_RKT1_
002c5474 W _ZN5boost5print5printIA28_cPKcA13_cNSt6__ndk112basic_stringIcNS6_11char_traitsIcEENS6_9allocatorIcEEEEEEjRT2_RKT_RKT0_RKT1_
001815a0 W _ZN5boost5print5printIA28_cPKcA3_cS4_NSt6__ndk112basic_stringIcNS6_11char_traitsIcEENS6_9allocatorIcEEEEEEjRT3_RKT_RKT0_RKT1_RKT2_
00190d28 W _ZN5boost5print5printIA28_cPKcNSt6__ndk112basic_stringIcNS5_11char_traitsIcEENS5_9allocatorIcEEEEEEjRT1_RKT_RKT0_
00487410 W _ZN5boost5print5printIA29_cA16_cNSt6__ndk112basic_stringIcNS4_11char_traitsIcEENS4_9allocatorIcEEEEEEjRT1_RKT_RKT0_
0018fc0c W _ZN5boost5print5printIA29_cNSt6__ndk112basic_stringIcNS3_11char_traitsIcEENS3_9allocatorIcEEEEPKcS9_EEjRT2_RKT_RKT0_RKT1_
00490b00 W _ZN5boost5print5printIA29_cPKcA28_cNSt6__ndk112basic_stringIcNS6_11char_traitsIcEENS6_9allocatorIcEEEEEEjRT2_RKT_RKT0_RKT1_
001813fc W _ZN5boost5print5printIA29_cPKcA3_cS4_NSt6__ndk112basic_stringIcNS6_11char_traitsIcEENS6_9allocatorIcEEEEEEjRT3_RKT_RKT0_RKT1_RKT2_
001872a4 W _ZN5boost5print5printIA29_cPKcNSt6__ndk112basic_stringIcNS5_11char_traitsIcEENS5_9allocatorIcEEEEEEjRT1_RKT_RKT0_
002536fc W _ZN5boost5print5printIA3_cNS0_6detail3hexIjEENSt6__ndk112basic_stringIcNS6_11char_traitsIcEENS6_9allocatorIcEEEEEEjRT1_RKT_RKT0_
004870c8 W _ZN5boost5print5printIA30_cA16_cNSt6__ndk112basic_stringIcNS4_11char_traitsIcEENS4_9allocatorIcEEEEEEjRT1_RKT_RKT0_
001915e8 W _ZN5boost5print5printIA30_cNSt6__ndk112basic_stringIcNS3_11char_traitsIcEENS3_9allocatorIcEEEEA4_cS9_S9_EEjRT3_RKT_RKT0_RKT1_RKT2_
0018f64c W _ZN5boost5print5printIA30_cNSt6__ndk112basic_stringIcNS3_11char_traitsIcEENS3_9allocatorIcEEEEPKcS9_EEjRT2_RKT_RKT0_RKT1_
002d0698 W _ZN5boost5print5printIA30_cPKcA13_cNSt6__ndk112basic_stringIcNS6_11char_traitsIcEENS6_9allocatorIcEEEEEEjRT2_RKT_RKT0_RKT1_
00487528 W _ZN5boost5print5printIA31_cA16_cNSt6__ndk112basic_stringIcNS4_11char_traitsIcEENS4_9allocatorIcEEEEEEjRT1_RKT_RKT0_
0018f4dc W _ZN5boost5print5printIA31_cNSt6__ndk112basic_stringIcNS3_11char_traitsIcEENS3_9allocatorIcEEEEPKcS9_EEjRT2_RKT_RKT0_RKT1_
00181744 W _ZN5boost5print5printIA31_cPKcA3_cS4_NSt6__ndk112basic_stringIcNS6_11char_traitsIcEENS6_9allocatorIcEEEEEEjRT3_RKT_RKT0_RKT1_RKT2_
002cf298 W _ZN5boost5print5printIA31_cPKcA43_cNSt6__ndk112basic_stringIcNS6_11char_traitsIcEENS6_9allocatorIcEEEEEEjRT2_RKT_RKT0_RKT1_
002cf140 W _ZN5boost5print5printIA31_cPKcA72_cNSt6__ndk112basic_stringIcNS6_11char_traitsIcEENS6_9allocatorIcEEEEEEjRT2_RKT_RKT0_RKT1_
00487bb8 W _ZN5boost5print5printIA32_cA16_cNSt6__ndk112basic_stringIcNS4_11char_traitsIcEENS4_9allocatorIcEEEEEEjRT1_RKT_RKT0_
0018ec3c W _ZN5boost5print5printIA32_cNSt6__ndk112basic_stringIcNS3_11char_traitsIcEENS3_9allocatorIcEEEEPKcS9_EEjRT2_RKT_RKT0_RKT1_
0018de8c W _ZN5boost5print5printIA32_cNSt6__ndk112basic_stringIcNS3_11char_traitsIcEENS3_9allocatorIcEEEES9_EEjRT1_RKT_RKT0_
002dc1b8 W _ZN5boost5print5printIA32_cPKcA13_cNSt6__ndk112basic_stringIcNS6_11char_traitsIcEENS6_9allocatorIcEEEEEEjRT2_RKT_RKT0_RKT1_
001818e8 W _ZN5boost5print5printIA32_cPKcA3_cS4_NSt6__ndk112basic_stringIcNS6_11char_traitsIcEENS6_9allocatorIcEEEEEEjRT3_RKT_RKT0_RKT1_RKT2_
00487640 W _ZN5boost5print5printIA33_cA16_cNSt6__ndk112basic_stringIcNS4_11char_traitsIcEENS4_9allocatorIcEEEEEEjRT1_RKT_RKT0_
0017c2e4 W _ZN5boost5print5printIA33_cA2_cPKcA3_cS5_NSt6__ndk112basic_stringIcNS7_11char_traitsIcEENS7_9allocatorIcEEEEEEjRT4_RKT_RKT0_RKT1_RKT2_RKT3_
00190c4c W _ZN5boost5print5printIA33_cNSt6__ndk112basic_stringIcNS3_11char_traitsIcEENS3_9allocatorIcEEEEEEjRT0_RKT_
0017f460 W _ZN5boost5print5printIA33_cPKcA3_cS4_NSt6__ndk112basic_stringIcNS6_11char_traitsIcEENS6_9allocatorIcEEEEEEjRT3_RKT_RKT0_RKT1_RKT2_
004872f8 W _ZN5boost5print5printIA34_cA16_cNSt6__ndk112basic_stringIcNS4_11char_traitsIcEENS4_9allocatorIcEEEEEEjRT1_RKT_RKT0_
001878bc W _ZN5boost5print5printIA34_cfA3_cPKcNSt6__ndk112basic_stringIcNS6_11char_traitsIcEENS6_9allocatorIcEEEEEEjRT3_RKT_RKT0_RKT1_RKT2_
001873c0 W _ZN5boost5print5printIA34_chA3_cPKcNSt6__ndk112basic_stringIcNS6_11char_traitsIcEENS6_9allocatorIcEEEEEEjRT3_RKT_RKT0_RKT1_RKT2_
001875b0 W _ZN5boost5print5printIA34_ciA3_cPKcNSt6__ndk112basic_stringIcNS6_11char_traitsIcEENS6_9allocatorIcEEEEEEjRT3_RKT_RKT0_RKT1_RKT2_
0018fa9c W _ZN5boost5print5printIA34_cNSt6__ndk112basic_stringIcNS3_11char_traitsIcEENS3_9allocatorIcEEEEPKcS9_EEjRT2_RKT_RKT0_RKT1_
0018da6c W _ZN5boost5print5printIA34_cNSt6__ndk112basic_stringIcNS3_11char_traitsIcEENS3_9allocatorIcEEEES9_EEjRT1_RKT_RKT0_
002df28c W _ZN5boost5print5printIA34_cPKcA13_cNSt6__ndk112basic_stringIcNS6_11char_traitsIcEENS6_9allocatorIcEEEEEEjRT2_RKT_RKT0_RKT1_
0048ecfc W _ZN5boost5print5printIA34_cPKcNSt6__ndk112basic_stringIcNS5_11char_traitsIcEENS5_9allocatorIcEEEEEEjRT1_RKT_RKT0_
00487de8 W _ZN5boost5print5printIA35_cA16_cNSt6__ndk112basic_stringIcNS4_11char_traitsIcEENS4_9allocatorIcEEEEEEjRT1_RKT_RKT0_
0048ea98 W _ZN5boost5print5printIA35_cjNSt6__ndk112basic_stringIcNS3_11char_traitsIcEENS3_9allocatorIcEEEEEEjRT1_RKT_RKT0_
0018f92c W _ZN5boost5print5printIA35_cNSt6__ndk112basic_stringIcNS3_11char_traitsIcEENS3_9allocatorIcEEEEPKcS9_EEjRT2_RKT_RKT0_RKT1_
0017f604 W _ZN5boost5print5printIA35_cPKcA3_cS4_NSt6__ndk112basic_stringIcNS6_11char_traitsIcEENS6_9allocatorIcEEEEEEjRT3_RKT_RKT0_RKT1_RKT2_
00487988 W _ZN5boost5print5printIA36_cA16_cNSt6__ndk112basic_stringIcNS4_11char_traitsIcEENS4_9allocatorIcEEEEEEjRT1_RKT_RKT0_
00188d04 W _ZN5boost5print5printIA36_cfA3_cPKcNSt6__ndk112basic_stringIcNS6_11char_traitsIcEENS6_9allocatorIcEEEEEEjRT3_RKT_RKT0_RKT1_RKT2_
002ddfd0 W _ZN5boost5print5printIA36_cNS0_6detail3hexIjEEA3_cPKcA2_cNSt6__ndk112basic_stringIcNSA_11char_traitsIcEENSA_9allocatorIcEEEEEEjRT4_RKT_RKT0_RKT1_RKT2_RKT3_
0018db90 W _ZN5boost5print5printIA36_cNSt6__ndk112basic_stringIcNS3_11char_traitsIcEENS3_9allocatorIcEEEES9_EEjRT1_RKT_RKT0_
00181a8c W _ZN5boost5print5printIA36_cPKcA3_cS4_NSt6__ndk112basic_stringIcNS6_11char_traitsIcEENS6_9allocatorIcEEEEEEjRT3_RKT_RKT0_RKT1_RKT2_
00487870 W _ZN5boost5print5printIA37_cA16_cNSt6__ndk112basic_stringIcNS4_11char_traitsIcEENS4_9allocatorIcEEEEEEjRT1_RKT_RKT0_
0017c0f0 W _ZN5boost5print5printIA37_cA2_cPKcA3_cS5_NSt6__ndk112basic_stringIcNS7_11char_traitsIcEENS7_9allocatorIcEEEEEEjRT4_RKT_RKT0_RKT1_RKT2_RKT3_
000f90e4 W _ZN5boost5print5printIA37_cNSt6__ndk112basic_stringIcNS3_11char_traitsIcEENS3_9allocatorIcEEEEA4_cS9_S9_EEjRT3_RKT_RKT0_RKT1_RKT2_
0017f2bc W _ZN5boost5print5printIA37_cPKcA3_cS4_NSt6__ndk112basic_stringIcNS6_11char_traitsIcEENS6_9allocatorIcEEEEEEjRT3_RKT_RKT0_RKT1_RKT2_
00487758 W _ZN5boost5print5printIA38_cA16_cNSt6__ndk112basic_stringIcNS4_11char_traitsIcEENS4_9allocatorIcEEEEEEjRT1_RKT_RKT0_
00487f00 W _ZN5boost5print5printIA39_cA16_cNSt6__ndk112basic_stringIcNS4_11char_traitsIcEENS4_9allocatorIcEEEEEEjRT1_RKT_RKT0_
0018447c W _ZN5boost5print5printIA39_chA3_cPKcNSt6__ndk112basic_stringIcNS6_11char_traitsIcEENS6_9allocatorIcEEEEEEjRT3_RKT_RKT0_RKT1_RKT2_
00181258 W _ZN5boost5print5printIA39_cPKcA3_cS4_NSt6__ndk112basic_stringIcNS6_11char_traitsIcEENS6_9allocatorIcEEEEEEjRT3_RKT_RKT0_RKT1_RKT2_
0018a0f0 W _ZN5boost5print5printIA4_cNS0_6detail3hexIhEEA2_cNSt6__ndk112basic_stringIcNS7_11char_traitsIcEENS7_9allocatorIcEEEEEEjRT2_RKT_RKT0_RKT1_
0018a254 W _ZN5boost5print5printIA4_cNS0_6detail3hexIhEES2_PKcNSt6__ndk112basic_stringIcNS8_11char_traitsIcEENS8_9allocatorIcEEEEEEjRT3_RKT_RKT0_RKT1_RKT2_
00488360 W _ZN5boost5print5printIA40_cA16_cNSt6__ndk112basic_stringIcNS4_11char_traitsIcEENS4_9allocatorIcEEEEEEjRT1_RKT_RKT0_
000f99a8 W _ZN5boost5print5printIA40_cNSt6__ndk112basic_stringIcNS3_11char_traitsIcEENS3_9allocatorIcEEEEEEjRT0_RKT_
00488130 W _ZN5boost5print5printIA41_cA16_cNSt6__ndk112basic_stringIcNS4_11char_traitsIcEENS4_9allocatorIcEEEEEEjRT1_RKT_RKT0_
00183e84 W _ZN5boost5print5printIA41_cfA3_cfS3_fS3_fA5_cPKcNSt6__ndk112basic_stringIcNS7_11char_traitsIcEENS7_9allocatorIcEEEEEEjRT9_RKT_RKT0_RKT1_RKT2_RKT3_RKT4_RKT5_RKT6_RKT7_RKT8_
001a9330 W _ZN5boost5print5printIA41_cNSt6__ndk112basic_stringIcNS3_11char_traitsIcEENS3_9allocatorIcEEEEEEjRT0_RKT_
004887c0 W _ZN5boost5print5printIA42_cA16_cNSt6__ndk112basic_stringIcNS4_11char_traitsIcEENS4_9allocatorIcEEEEEEjRT1_RKT_RKT0_
001a94e8 W _ZN5boost5print5printIA42_cNSt6__ndk112basic_stringIcNS3_11char_traitsIcEENS3_9allocatorIcEEEEEEjRT0_RKT_
002ca64c W _ZN5boost5print5printIA42_cPKcNSt6__ndk112basic_stringIcNS5_11char_traitsIcEENS5_9allocatorIcEEEEEEjRT1_RKT_RKT0_
00487cd0 W _ZN5boost5print5printIA43_cA16_cNSt6__ndk112basic_stringIcNS4_11char_traitsIcEENS4_9allocatorIcEEEEEEjRT1_RKT_RKT0_
0018428c W _ZN5boost5print5printIA43_chA3_cPKcNSt6__ndk112basic_stringIcNS6_11char_traitsIcEENS6_9allocatorIcEEEEEEjRT3_RKT_RKT0_RKT1_RKT2_
001a940c W _ZN5boost5print5printIA43_cNSt6__ndk112basic_stringIcNS3_11char_traitsIcEENS3_9allocatorIcEEEEEEjRT0_RKT_
00181c30 W _ZN5boost5print5printIA43_cPKcA3_cS4_NSt6__ndk112basic_stringIcNS6_11char_traitsIcEENS6_9allocatorIcEEEEEEjRT3_RKT_RKT0_RKT1_RKT2_
002e1a80 W _ZN5boost5print5printIA43_cPKcNSt6__ndk112basic_stringIcNS5_11char_traitsIcEENS5_9allocatorIcEEEEEEjRT1_RKT_RKT0_
001a9254 W _ZN5boost5print5printIA44_cNSt6__ndk112basic_stringIcNS3_11char_traitsIcEENS3_9allocatorIcEEEEEEjRT0_RKT_
0018466c W _ZN5boost5print5printIA44_cPKcA3_cS4_NSt6__ndk112basic_stringIcNS6_11char_traitsIcEENS6_9allocatorIcEEEEEEjRT3_RKT_RKT0_RKT1_RKT2_
0018dfb0 W _ZN5boost5print5printIA45_cNSt6__ndk112basic_stringIcNS3_11char_traitsIcEENS3_9allocatorIcEEEES9_EEjRT1_RKT_RKT0_
00487aa0 W _ZN5boost5print5printIA46_cA16_cNSt6__ndk112basic_stringIcNS4_11char_traitsIcEENS4_9allocatorIcEEEEEEjRT1_RKT_RKT0_
0018e824 W _ZN5boost5print5printIA46_cNSt6__ndk112basic_stringIcNS3_11char_traitsIcEENS3_9allocatorIcEEEEEEjRT0_RKT_
00488248 W _ZN5boost5print5printIA47_cA16_cNSt6__ndk112basic_stringIcNS4_11char_traitsIcEENS4_9allocatorIcEEEEEEjRT1_RKT_RKT0_
00188efc W _ZN5boost5print5printIA47_cfA3_cPKcNSt6__ndk112basic_stringIcNS6_11char_traitsIcEENS6_9allocatorIcEEEEEEjRT3_RKT_RKT0_RKT1_RKT2_
00189468 W _ZN5boost5print5printIA47_cPKcA3_cS4_NSt6__ndk112basic_stringIcNS6_11char_traitsIcEENS6_9allocatorIcEEEEEEjRT3_RKT_RKT0_RKT1_RKT2_
001a95c4 W _ZN5boost5print5printIA48_cNSt6__ndk112basic_stringIcNS3_11char_traitsIcEENS3_9allocatorIcEEEEEEjRT0_RKT_
00488018 W _ZN5boost5print5printIA49_cA16_cNSt6__ndk112basic_stringIcNS4_11char_traitsIcEENS4_9allocatorIcEEEEEEjRT1_RKT_RKT0_
004886a8 W _ZN5boost5print5printIA50_cA16_cNSt6__ndk112basic_stringIcNS4_11char_traitsIcEENS4_9allocatorIcEEEEEEjRT1_RKT_RKT0_
00188870 W _ZN5boost5print5printIA51_cfA3_cPKcNSt6__ndk112basic_stringIcNS6_11char_traitsIcEENS6_9allocatorIcEEEEEEjRT3_RKT_RKT0_RKT1_RKT2_
001890f4 W _ZN5boost5print5printIA53_cfA3_cfS3_fA5_cPKcNSt6__ndk112basic_stringIcNS7_11char_traitsIcEENS7_9allocatorIcEEEEEEjRT7_RKT_RKT0_RKT1_RKT2_RKT3_RKT4_RKT5_RKT6_
00488478 W _ZN5boost5print5printIA56_cA16_cNSt6__ndk112basic_stringIcNS4_11char_traitsIcEENS4_9allocatorIcEEEEEEjRT1_RKT_RKT0_
0018e748 W _ZN5boost5print5printIA56_cNSt6__ndk112basic_stringIcNS3_11char_traitsIcEENS3_9allocatorIcEEEEEEjRT0_RKT_
00488590 W _ZN5boost5print5printIA57_cA16_cNSt6__ndk112basic_stringIcNS4_11char_traitsIcEENS4_9allocatorIcEEEEEEjRT1_RKT_RKT0_
002daed4 W _ZN5boost5print5printIA59_cNSt6__ndk112basic_stringIcNS3_11char_traitsIcEENS3_9allocatorIcEEEEEEjRT0_RKT_
00486290 W _ZN5boost5print5printIA6_cA16_cNSt6__ndk112basic_stringIcNS4_11char_traitsIcEENS4_9allocatorIcEEEEEEjRT1_RKT_RKT0_
002ce820 W _ZN5boost5print5printIA60_cNSt6__ndk112basic_stringIcNS3_11char_traitsIcEENS3_9allocatorIcEEEEEEjRT0_RKT_
000f96b4 W _ZN5boost5print5printIA66_cfNSt6__ndk112basic_stringIcNS3_11char_traitsIcEENS3_9allocatorIcEEEEEEjRT1_RKT_RKT0_
000e09b4 W _ZN5boost5print5printIA66_ciNSt6__ndk112basic_stringIcNS3_11char_traitsIcEENS3_9allocatorIcEEEEEEjRT1_RKT_RKT0_
002c43a4 W _ZN5boost5print5printIA68_cNSt6__ndk112basic_stringIcNS3_11char_traitsIcEENS3_9allocatorIcEEEEEEjRT0_RKT_
002c46cc W _ZN5boost5print5printIA69_cNSt6__ndk112basic_stringIcNS3_11char_traitsIcEENS3_9allocatorIcEEEEEEjRT0_RKT_
004864c0 W _ZN5boost5print5printIA7_cA16_cNSt6__ndk112basic_stringIcNS4_11char_traitsIcEENS4_9allocatorIcEEEEEEjRT1_RKT_RKT0_
00193e1c W _ZN5boost5print5printIA7_cjcyA8_cdA6_cNSt6__ndk112basic_stringIcNS5_11char_traitsIcEENS5_9allocatorIcEEEEEEjRT6_RKT_RKT0_RKT1_RKT2_RKT3_RKT4_RKT5_
0018e900 W _ZN5boost5print5printIA7_cPN5Regal12RegalContextEPKcNSt6__ndk112basic_stringIcNS8_11char_traitsIcEENS8_9allocatorIcEEEEEEjRT2_RKT_RKT0_RKT1_
002c5724 W _ZN5boost5print5printIA70_cNSt6__ndk112basic_stringIcNS3_11char_traitsIcEENS3_9allocatorIcEEEEEEjRT0_RKT_
002c47a8 W _ZN5boost5print5printIA71_cNSt6__ndk112basic_stringIcNS3_11char_traitsIcEENS3_9allocatorIcEEEEEEjRT0_RKT_
002c58dc W _ZN5boost5print5printIA72_cNSt6__ndk112basic_stringIcNS3_11char_traitsIcEENS3_9allocatorIcEEEEEEjRT0_RKT_
000e0d60 W _ZN5boost5print5printIA73_cNSt6__ndk112basic_stringIcNS3_11char_traitsIcEENS3_9allocatorIcEEEEEEjRT0_RKT_
001882c4 W _ZN5boost5print5printIA74_cfA2_cfS3_fS3_fA4_cPKcNSt6__ndk112basic_stringIcNS7_11char_traitsIcEENS7_9allocatorIcEEEEEEjRT9_RKT_RKT0_RKT1_RKT2_RKT3_RKT4_RKT5_RKT6_RKT7_RKT8_
002c4884 W _ZN5boost5print5printIA74_cNSt6__ndk112basic_stringIcNS3_11char_traitsIcEENS3_9allocatorIcEEEEEEjRT0_RKT_
001886cc W _ZN5boost5print5printIA74_cPKcA3_cS4_NSt6__ndk112basic_stringIcNS6_11char_traitsIcEENS6_9allocatorIcEEEEEEjRT3_RKT_RKT0_RKT1_RKT2_
002c5800 W _ZN5boost5print5printIA75_cNSt6__ndk112basic_stringIcNS3_11char_traitsIcEENS3_9allocatorIcEEEEEEjRT0_RKT_
002d11f4 W _ZN5boost5print5printIA77_cNSt6__ndk112basic_stringIcNS3_11char_traitsIcEENS3_9allocatorIcEEEEEEjRT0_RKT_
004858b8 W _ZN5boost5print5printIA8_cA16_cNSt6__ndk112basic_stringIcNS4_11char_traitsIcEENS4_9allocatorIcEEEEEEjRT1_RKT_RKT0_
00187ebc W _ZN5boost5print5printIA80_cfA2_cfS3_fS3_fA4_cPKcNSt6__ndk112basic_stringIcNS7_11char_traitsIcEENS7_9allocatorIcEEEEEEjRT9_RKT_RKT0_RKT1_RKT2_RKT3_RKT4_RKT5_RKT6_RKT7_RKT8_
00187ab4 W _ZN5boost5print5printIA82_cfA2_cfS3_fS3_fA4_cPKcNSt6__ndk112basic_stringIcNS7_11char_traitsIcEENS7_9allocatorIcEEEEEEjRT9_RKT_RKT0_RKT1_RKT2_RKT3_RKT4_RKT5_RKT6_RKT7_RKT8_
00490f68 W _ZN5boost5print5printIA84_cNSt6__ndk112basic_stringIcNS3_11char_traitsIcEENS3_9allocatorIcEEEEEEjRT0_RKT_
00490c58 W _ZN5boost5print5printIA89_cNSt6__ndk112basic_stringIcNS3_11char_traitsIcEENS3_9allocatorIcEEEEEEjRT0_RKT_
00485ae8 W _ZN5boost5print5printIA9_cA16_cNSt6__ndk112basic_stringIcNS4_11char_traitsIcEENS4_9allocatorIcEEEEEEjRT1_RKT_RKT0_
00491be0 W _ZN5boost5print5printIA90_cNSt6__ndk112basic_stringIcNS3_11char_traitsIcEENS3_9allocatorIcEEEEEEjRT0_RKT_
00490a24 W _ZN5boost5print5printIA94_cNSt6__ndk112basic_stringIcNS3_11char_traitsIcEENS3_9allocatorIcEEEEEEjRT0_RKT_
002e50f8 W _ZN5boost5print5printIA95_cNSt6__ndk112basic_stringIcNS3_11char_traitsIcEENS3_9allocatorIcEEEEEEjRT0_RKT_
002e5314 W _ZN5boost5print5printIA96_cNSt6__ndk112basic_stringIcNS3_11char_traitsIcEENS3_9allocatorIcEEEEEEjRT0_RKT_
002e53f0 W _ZN5boost5print5printIA97_cNSt6__ndk112basic_stringIcNS3_11char_traitsIcEENS3_9allocatorIcEEEEEEjRT0_RKT_
000f7c1c W _ZN5boost5print5printIfNSt6__ndk112basic_stringIcNS2_11char_traitsIcEENS2_9allocatorIcEEEEEEjRT0_RKT_
000f81cc W _ZN5boost5print5printIiNSt6__ndk112basic_stringIcNS2_11char_traitsIcEENS2_9allocatorIcEEEEEEjRT0_RKT_
000f8414 W _ZN5boost5print5printIjNSt6__ndk112basic_stringIcNS2_11char_traitsIcEENS2_9allocatorIcEEEEEEjRT0_RKT_
0016bbc8 W _ZN5boost5print5printINS0_6detail3hexIjEEPKcNSt6__ndk112basic_stringIcNS7_11char_traitsIcEENS7_9allocatorIcEEEEEEjRT1_RKT_RKT0_
0016c1e8 W _ZN5boost5print5printINS0_6detail3padIcEEA2_cNSt6__ndk112basic_stringIcNS6_11char_traitsIcEENS6_9allocatorIcEEEEEEjRT1_RKT_RKT0_
0016bfb4 W _ZN5boost5print5printINS0_6detail4trimIPKccEEcNSt6__ndk112basic_stringIcNS7_11char_traitsIcEENS7_9allocatorIcEEEEEEjRT1_RKT_RKT0_
00253c74 W _ZN5boost5print5printINS0_6detail5arrayIaKPKcEENSt6__ndk112basic_stringIcNS8_11char_traitsIcEENS8_9allocatorIcEEEEEEjRT0_RKT_
00255118 W _ZN5boost5print5printINS0_6detail5arrayIfKPKcEENSt6__ndk112basic_stringIcNS8_11char_traitsIcEENS8_9allocatorIcEEEEEEjRT0_RKT_
002541a0 W _ZN5boost5print5printINS0_6detail5arrayIhKPKcEENSt6__ndk112basic_stringIcNS8_11char_traitsIcEENS8_9allocatorIcEEEEEEjRT0_RKT_
00254644 W _ZN5boost5print5printINS0_6detail5arrayIsKPKcEENSt6__ndk112basic_stringIcNS8_11char_traitsIcEENS8_9allocatorIcEEEEEEjRT0_RKT_
00254bec W _ZN5boost5print5printINS0_6detail5arrayItKPKcEENSt6__ndk112basic_stringIcNS8_11char_traitsIcEENS8_9allocatorIcEEEEEEjRT0_RKT_
002538b8 W _ZN5boost5print5printINS0_6detail8iteratorINSt6__ndk111__wrap_iterIPPKcEEKS7_EENS4_12basic_stringIcNS4_11char_traitsIcEENS4_9allocatorIcEEEEEEjRT0_RKT_
00170108 W _ZN5boost5print5printINSt6__ndk112basic_stringIcNS2_11char_traitsIcEENS2_9allocatorIcEEEEPKcS8_EEjRT1_RKT_RKT0_
0016be40 W _ZN5boost5print5printINSt6__ndk112basic_stringIcNS2_11char_traitsIcEENS2_9allocatorIcEEEEPKcSA_S8_EEjRT2_RKT_RKT0_RKT1_
000f730c W _ZN5boost5print5printINSt6__ndk112basic_stringIcNS2_11char_traitsIcEENS2_9allocatorIcEEEES8_EEjRT0_RKT_
00255538 W _ZN5boost5print5printIPKcA2_cS3_S4_S3_S4_S3_NSt6__ndk112basic_stringIcNS5_11char_traitsIcEENS5_9allocatorIcEEEEEEjRT6_RKT_RKT0_RKT1_RKT2_RKT3_RKT4_RKT5_
0016f5d0 W _ZN5boost5print5printIPKcNS0_6detail3padIcEEA2_cA10_cA5_cbNSt6__ndk112basic_stringIcNSA_11char_traitsIcEENSA_9allocatorIcEEEEEEjRT5_RKT_RKT0_RKT1_RKT2_RKT3_RKT4_
001a36d8 W _ZN5boost5print5printIPKcNS0_6detail3padIcEEA2_cA10_cA6_cNSt6__ndk112basic_stringIcNSA_11char_traitsIcEENSA_9allocatorIcEEEEEEjRT4_RKT_RKT0_RKT1_RKT2_RKT3_
001a5184 W _ZN5boost5print5printIPKcNS0_6detail3padIcEEA2_cA10_cA6_cNSt6__ndk112basic_stringIcNSA_11char_traitsIcEENSA_9allocatorIcEEEES7_SG_EEjRT6_RKT_RKT0_RKT1_RKT2_RKT3_RKT4_RKT5_
001a3494 W _ZN5boost5print5printIPKcNS0_6detail3padIcEEA2_cA11_cA5_cbNSt6__ndk112basic_stringIcNSA_11char_traitsIcEENSA_9allocatorIcEEEEEEjRT5_RKT_RKT0_RKT1_RKT2_RKT3_RKT4_
001a2910 W _ZN5boost5print5printIPKcNS0_6detail3padIcEEA2_cA11_cA6_cNSt6__ndk112basic_stringIcNSA_11char_traitsIcEENSA_9allocatorIcEEEES7_SG_EEjRT6_RKT_RKT0_RKT1_RKT2_RKT3_RKT4_RKT5_
001a4cfc W _ZN5boost5print5printIPKcNS0_6detail3padIcEEA2_cA12_cA5_cbNSt6__ndk112basic_stringIcNSA_11char_traitsIcEENSA_9allocatorIcEEEEEEjRT5_RKT_RKT0_RKT1_RKT2_RKT3_RKT4_
0016fcd0 W _ZN5boost5print5printIPKcNS0_6detail3padIcEEA2_cA12_cA5_cjNSt6__ndk112basic_stringIcNSA_11char_traitsIcEENSA_9allocatorIcEEEEEEjRT5_RKT_RKT0_RKT1_RKT2_RKT3_RKT4_
001a4f40 W _ZN5boost5print5printIPKcNS0_6detail3padIcEEA2_cA13_cA5_cbNSt6__ndk112basic_stringIcNSA_11char_traitsIcEENSA_9allocatorIcEEEEEEjRT5_RKT_RKT0_RKT1_RKT2_RKT3_RKT4_
0016f814 W _ZN5boost5print5printIPKcNS0_6detail3padIcEEA2_cA16_cA5_cbNSt6__ndk112basic_stringIcNSA_11char_traitsIcEENSA_9allocatorIcEEEEEEjRT5_RKT_RKT0_RKT1_RKT2_RKT3_RKT4_
001a3078 W _ZN5boost5print5printIPKcNS0_6detail3padIcEEA2_cA3_cA5_cbNSt6__ndk112basic_stringIcNSA_11char_traitsIcEENSA_9allocatorIcEEEEEEjRT5_RKT_RKT0_RKT1_RKT2_RKT3_RKT4_
0016cb74 W _ZN5boost5print5printIPKcNS0_6detail3padIcEEA2_cA3_cA5_cyNSt6__ndk112basic_stringIcNSA_11char_traitsIcEENSA_9allocatorIcEEEEEEjRT5_RKT_RKT0_RKT1_RKT2_RKT3_RKT4_
001a2b88 W _ZN5boost5print5printIPKcNS0_6detail3padIcEEA2_cA3_cA6_cNSt6__ndk112basic_stringIcNSA_11char_traitsIcEENSA_9allocatorIcEEEES7_SG_EEjRT6_RKT_RKT0_RKT1_RKT2_RKT3_RKT4_RKT5_
0016d214 W _ZN5boost5print5printIPKcNS0_6detail3padIcEEA2_cA3_cA6_cS3_S7_NSt6__ndk112basic_stringIcNSA_11char_traitsIcEENSA_9allocatorIcEEEEEEjRT6_RKT_RKT0_RKT1_RKT2_RKT3_RKT4_RKT5_
0016e94c W _ZN5boost5print5printIPKcNS0_6detail3padIcEEA2_cA4_cA5_cbNSt6__ndk112basic_stringIcNSA_11char_traitsIcEENSA_9allocatorIcEEEEEEjRT5_RKT_RKT0_RKT1_RKT2_RKT3_RKT4_
0016c73c W _ZN5boost5print5printIPKcNS0_6detail3padIcEEA2_cA4_cA5_cjNSt6__ndk112basic_stringIcNSA_11char_traitsIcEENSA_9allocatorIcEEEEEEjRT5_RKT_RKT0_RKT1_RKT2_RKT3_RKT4_
001a3d1c W _ZN5boost5print5printIPKcNS0_6detail3padIcEEA2_cA4_cA6_cNSt6__ndk112basic_stringIcNSA_11char_traitsIcEENSA_9allocatorIcEEEEEEjRT4_RKT_RKT0_RKT1_RKT2_RKT3_
001a2e00 W _ZN5boost5print5printIPKcNS0_6detail3padIcEEA2_cA4_cA6_cNSt6__ndk112basic_stringIcNSA_11char_traitsIcEENSA_9allocatorIcEEEES7_SG_EEjRT6_RKT_RKT0_RKT1_RKT2_RKT3_RKT4_RKT5_
0016c4d0 W _ZN5boost5print5printIPKcNS0_6detail3padIcEEA2_cA4_cA6_cS3_S7_NSt6__ndk112basic_stringIcNSA_11char_traitsIcEENSA_9allocatorIcEEEEEEjRT6_RKT_RKT0_RKT1_RKT2_RKT3_RKT4_RKT5_
0016d6f8 W _ZN5boost5print5printIPKcNS0_6detail3padIcEEA2_cA5_cA6_cNSt6__ndk112basic_stringIcNSA_11char_traitsIcEENSA_9allocatorIcEEEEEEjRT4_RKT_RKT0_RKT1_RKT2_RKT3_
0016d480 W _ZN5boost5print5printIPKcNS0_6detail3padIcEEA2_cA5_cA6_cNSt6__ndk112basic_stringIcNSA_11char_traitsIcEENSA_9allocatorIcEEEES7_SG_EEjRT6_RKT_RKT0_RKT1_RKT2_RKT3_RKT4_RKT5_
0016d8d0 W _ZN5boost5print5printIPKcNS0_6detail3padIcEEA2_cA5_cA6_cS3_S7_NSt6__ndk112basic_stringIcNSA_11char_traitsIcEENSA_9allocatorIcEEEEEEjRT6_RKT_RKT0_RKT1_RKT2_RKT3_RKT4_RKT5_
0016e708 W _ZN5boost5print5printIPKcNS0_6detail3padIcEEA2_cA5_cS8_bNSt6__ndk112basic_stringIcNS9_11char_traitsIcEENS9_9allocatorIcEEEEEEjRT5_RKT_RKT0_RKT1_RKT2_RKT3_RKT4_
0016e280 W _ZN5boost5print5printIPKcNS0_6detail3padIcEEA2_cA6_cA5_cbNSt6__ndk112basic_stringIcNSA_11char_traitsIcEENSA_9allocatorIcEEEEEEjRT5_RKT_RKT0_RKT1_RKT2_RKT3_RKT4_
001a3ef4 W _ZN5boost5print5printIPKcNS0_6detail3padIcEEA2_cA6_cA5_chNSt6__ndk112basic_stringIcNSA_11char_traitsIcEENSA_9allocatorIcEEEEEEjRT5_RKT_RKT0_RKT1_RKT2_RKT3_RKT4_
001a38b0 W _ZN5boost5print5printIPKcNS0_6detail3padIcEEA2_cA6_cA5_ciNSt6__ndk112basic_stringIcNSA_11char_traitsIcEENSA_9allocatorIcEEEEEEjRT5_RKT_RKT0_RKT1_RKT2_RKT3_RKT4_
001a43d4 W _ZN5boost5print5printIPKcNS0_6detail3padIcEEA2_cA6_cA5_cjNSt6__ndk112basic_stringIcNSA_11char_traitsIcEENSA_9allocatorIcEEEEEEjRT5_RKT_RKT0_RKT1_RKT2_RKT3_RKT4_
0018dcb4 W _ZN5boost5print5printIPKcNS0_6detail3padIcEEA2_cA6_cS8_NSt6__ndk112basic_stringIcNS9_11char_traitsIcEENS9_9allocatorIcEEEEEEjRT4_RKT_RKT0_RKT1_RKT2_RKT3_
001a480c W _ZN5boost5print5printIPKcNS0_6detail3padIcEEA2_cA6_cS8_NSt6__ndk112basic_stringIcNS9_11char_traitsIcEENS9_9allocatorIcEEEES7_SF_EEjRT6_RKT_RKT0_RKT1_RKT2_RKT3_RKT4_RKT5_
0016eb90 W _ZN5boost5print5printIPKcNS0_6detail3padIcEEA2_cA7_cA5_cbNSt6__ndk112basic_stringIcNSA_11char_traitsIcEENSA_9allocatorIcEEEEEEjRT5_RKT_RKT0_RKT1_RKT2_RKT3_RKT4_
0016e0a8 W _ZN5boost5print5printIPKcNS0_6detail3padIcEEA2_cA7_cA6_cNSt6__ndk112basic_stringIcNSA_11char_traitsIcEENSA_9allocatorIcEEEEEEjRT4_RKT_RKT0_RKT1_RKT2_RKT3_
0016db3c W _ZN5boost5print5printIPKcNS0_6detail3padIcEEA2_cA7_cA6_cNSt6__ndk112basic_stringIcNSA_11char_traitsIcEENSA_9allocatorIcEEEES7_SG_EEjRT6_RKT_RKT0_RKT1_RKT2_RKT3_RKT4_RKT5_
0016e4c4 W _ZN5boost5print5printIPKcNS0_6detail3padIcEEA2_cA8_cA5_cbNSt6__ndk112basic_stringIcNSA_11char_traitsIcEENSA_9allocatorIcEEEEEEjRT5_RKT_RKT0_RKT1_RKT2_RKT3_RKT4_
001a4164 W _ZN5boost5print5printIPKcNS0_6detail3padIcEEA2_cA8_cA5_chNSt6__ndk112basic_stringIcNSA_11char_traitsIcEENSA_9allocatorIcEEEEEEjRT5_RKT_RKT0_RKT1_RKT2_RKT3_RKT4_
0016ded0 W _ZN5boost5print5printIPKcNS0_6detail3padIcEEA2_cA8_cA6_cNSt6__ndk112basic_stringIcNSA_11char_traitsIcEENSA_9allocatorIcEEEEEEjRT4_RKT_RKT0_RKT1_RKT2_RKT3_
001a4a84 W _ZN5boost5print5printIPKcNS0_6detail3padIcEEA2_cA8_cA6_cNSt6__ndk112basic_stringIcNSA_11char_traitsIcEENSA_9allocatorIcEEEES7_SG_EEjRT6_RKT_RKT0_RKT1_RKT2_RKT3_RKT4_RKT5_
0016edd4 W _ZN5boost5print5printIPKcNS0_6detail3padIcEEA2_cA9_cA5_cbNSt6__ndk112basic_stringIcNSA_11char_traitsIcEENSA_9allocatorIcEEEEEEjRT5_RKT_RKT0_RKT1_RKT2_RKT3_RKT4_
0016f164 W _ZN5boost5print5printIPKcNS0_6detail3padIcEEA2_cA9_cA5_ciNSt6__ndk112basic_stringIcNSA_11char_traitsIcEENSA_9allocatorIcEEEEEEjRT5_RKT_RKT0_RKT1_RKT2_RKT3_RKT4_
001a32bc W _ZN5boost5print5printIPKcNS0_6detail3padIcEEA2_cA9_cA6_cNSt6__ndk112basic_stringIcNSA_11char_traitsIcEENSA_9allocatorIcEEEEEEjRT4_RKT_RKT0_RKT1_RKT2_RKT3_
0016fa58 W _ZN5boost5print5printIPKcNS0_6detail3padIcEEA2_cA9_cA6_cNSt6__ndk112basic_stringIcNSA_11char_traitsIcEENSA_9allocatorIcEEEES7_SG_EEjRT6_RKT_RKT0_RKT1_RKT2_RKT3_RKT4_RKT5_
000f80ec W _ZN5boost5print5printIPKcNSt6__ndk112basic_stringIcNS4_11char_traitsIcEENS4_9allocatorIcEEEEEEjRT0_RKT_
0017c95c W _ZN5boost5print5printIPKcS3_A2_cjA3_cS3_NSt6__ndk112basic_stringIcNS6_11char_traitsIcEENS6_9allocatorIcEEEEEEjRT5_RKT_RKT0_RKT1_RKT2_RKT3_RKT4_
0017c4d8 W _ZN5boost5print5printIPKcS3_A3_cS3_NSt6__ndk112basic_stringIcNS5_11char_traitsIcEENS5_9allocatorIcEEEEEEjRT3_RKT_RKT0_RKT1_RKT2_
0016baa8 W _ZN5boost5print5printIPKcS3_NSt6__ndk112basic_stringIcNS4_11char_traitsIcEENS4_9allocatorIcEEEEEEjRT1_RKT_RKT0_
000f7db0 W _ZN5boost5print6detail13write_sprintfINSt6__ndk111__wrap_iterIPcEEEEjRT_PKcz
000f7d38 W _ZN5boost5print6detail14sprintf_lengthEPKcz
00192218 W _ZN5boost5print6detail4joinINSt6__ndk13setINS3_12basic_stringIcNS3_11char_traitsIcEENS3_9allocatorIcEEEENS3_4lessISA_EENS8_ISA_EEEESA_EET0_RKT_RKSF_
000f8770 W _ZN5boost5print6detail4joinINSt6__ndk15dequeINS3_12basic_stringIcNS3_11char_traitsIcEENS3_9allocatorIcEEEENS8_ISA_EEEESA_EET0_RKT_RKSD_
00186288 W _ZN5boost5print6extend5writeINSt6__ndk111__wrap_iterIPcEEA10_cPKcA17_cfA3_cS9_EEvRT_RKT0_RKT1_RKT2_RKT3_RKT4_RKT5_
00185fac W _ZN5boost5print6extend5writeINSt6__ndk111__wrap_iterIPcEEA10_cPKcA19_cfA3_cS9_EEvRT_RKT0_RKT1_RKT2_RKT3_RKT4_RKT5_
001855dc W _ZN5boost5print6extend5writeINSt6__ndk111__wrap_iterIPcEEA10_cPKcA24_cfA3_cS9_EEvRT_RKT0_RKT1_RKT2_RKT3_RKT4_RKT5_
00185300 W _ZN5boost5print6extend5writeINSt6__ndk111__wrap_iterIPcEEA10_cPKcA26_cfA3_cS9_EEvRT_RKT0_RKT1_RKT2_RKT3_RKT4_RKT5_
001858b8 W _ZN5boost5print6extend5writeINSt6__ndk111__wrap_iterIPcEEA10_cPKcA27_cfA3_cS9_EEvRT_RKT0_RKT1_RKT2_RKT3_RKT4_RKT5_
00184a54 W _ZN5boost5print6extend5writeINSt6__ndk111__wrap_iterIPcEEA11_cPKcA14_cfA2_cfSB_fSB_fA4_cS9_EEvRT_RKT0_RKT1_RKT2_RKT3_RKT4_RKT5_RKT6_RKT7_RKT8_RKT9_RKT10_RKT11_
00184f08 W _ZN5boost5print6extend5writeINSt6__ndk111__wrap_iterIPcEEA11_cPKcA15_cfA2_cfSB_fSB_fA4_cS9_EEvRT_RKT0_RKT1_RKT2_RKT3_RKT4_RKT5_RKT6_RKT7_RKT8_RKT9_RKT10_RKT11_
00185c10 W _ZN5boost5print6extend5writeINSt6__ndk111__wrap_iterIPcEEA11_cPKcA21_cfA2_cfSB_fA4_cS9_EEvRT_RKT0_RKT1_RKT2_RKT3_RKT4_RKT5_RKT6_RKT7_RKT8_RKT9_
0017fa44 W _ZN5boost5print6extend5writeINSt6__ndk111__wrap_iterIPcEEA13_cjA2_cdS8_dA3_cPKcEEvRT_RKT0_RKT1_RKT2_RKT3_RKT4_RKT5_RKT6_RKT7_
0018009c W _ZN5boost5print6extend5writeINSt6__ndk111__wrap_iterIPcEEA13_cjA2_cdS8_djS8_dS8_dA3_cPKcEEvRT_RKT0_RKT1_RKT2_RKT3_RKT4_RKT5_RKT6_RKT7_RKT8_RKT9_RKT10_RKT11_RKT12_
00183918 W _ZN5boost5print6extend5writeINSt6__ndk111__wrap_iterIPcEEA13_cPKcA15_cfA3_cS9_EEvRT_RKT0_RKT1_RKT2_RKT3_RKT4_RKT5_
0017c808 W _ZN5boost5print6extend5writeINSt6__ndk111__wrap_iterIPcEEA13_cPKcA2_cfA3_cS9_EEvRT_RKT0_RKT1_RKT2_RKT3_RKT4_RKT5_
0018c988 W _ZN5boost5print6extend5writeINSt6__ndk111__wrap_iterIPcEEA13_cPKcA5_cdA3_cdSB_dSB_dSA_S9_EEvRT_RKT0_RKT1_RKT2_RKT3_RKT4_RKT5_RKT6_RKT7_RKT8_RKT9_RKT10_RKT11_
0017bef4 W _ZN5boost5print6extend5writeINSt6__ndk111__wrap_iterIPcEEA14_cfA2_cfS8_fS8_fA3_cPKcEEvRT_RKT0_RKT1_RKT2_RKT3_RKT4_RKT5_RKT6_RKT7_RKT8_RKT9_
0017dfcc W _ZN5boost5print6extend5writeINSt6__ndk111__wrap_iterIPcEEA14_cjA2_chS8_hS8_hS8_hA3_cPKcEEvRT_RKT0_RKT1_RKT2_RKT3_RKT4_RKT5_RKT6_RKT7_RKT8_RKT9_RKT10_RKT11_
00183520 W _ZN5boost5print6extend5writeINSt6__ndk111__wrap_iterIPcEEA14_cPKcA15_cfA2_cfSB_fSB_fA4_cS9_EEvRT_RKT0_RKT1_RKT2_RKT3_RKT4_RKT5_RKT6_RKT7_RKT8_RKT9_RKT10_RKT11_
00183c70 W _ZN5boost5print6extend5writeINSt6__ndk111__wrap_iterIPcEEA14_cPKcA20_cfA2_cfSB_fA4_cS9_EEvRT_RKT0_RKT1_RKT2_RKT3_RKT4_RKT5_RKT6_RKT7_RKT8_RKT9_
0018306c W _ZN5boost5print6extend5writeINSt6__ndk111__wrap_iterIPcEEA14_cPKcS7_fA2_cfSA_fSA_fA4_cS9_EEvRT_RKT0_RKT1_RKT2_RKT3_RKT4_RKT5_RKT6_RKT7_RKT8_RKT9_RKT10_RKT11_
001867d0 W _ZN5boost5print6extend5writeINSt6__ndk111__wrap_iterIPcEEA15_ciA4_cNS0_6detail3hexItEEA3_cPKcEEvRT_RKT0_RKT1_RKT2_RKT3_RKT4_RKT5_
00191250 W _ZN5boost5print6extend5writeINSt6__ndk111__wrap_iterIPcEEA16_cPKcA15_ciA4_cS5_EEvRT_RKT0_RKT1_RKT2_RKT3_RKT4_RKT5_
00186f10 W _ZN5boost5print6extend5writeINSt6__ndk111__wrap_iterIPcEEA18_cfA2_chA3_cPKcEEvRT_RKT0_RKT1_RKT2_RKT3_RKT4_RKT5_
0018a988 W _ZN5boost5print6extend5writeINSt6__ndk111__wrap_iterIPcEEA19_cjA5_ciA2_ciS9_iS9_iA6_cPKcEEvRT_RKT0_RKT1_RKT2_RKT3_RKT4_RKT5_RKT6_RKT7_RKT8_RKT9_RKT10_RKT11_
0018d7f4 W _ZN5boost5print6extend5writeINSt6__ndk111__wrap_iterIPcEEA21_cjA2_cdS8_dA3_cPKcEEvRT_RKT0_RKT1_RKT2_RKT3_RKT4_RKT5_RKT6_RKT7_
0018cf34 W _ZN5boost5print6extend5writeINSt6__ndk111__wrap_iterIPcEEA21_cjA5_cfA2_cfS9_fS9_fA6_cPKcEEvRT_RKT0_RKT1_RKT2_RKT3_RKT4_RKT5_RKT6_RKT7_RKT8_RKT9_RKT10_RKT11_
0018c500 W _ZN5boost5print6extend5writeINSt6__ndk111__wrap_iterIPcEEA21_cPKcA2_cS9_SA_S9_SA_S9_A3_cS9_EEvRT_RKT0_RKT1_RKT2_RKT3_RKT4_RKT5_RKT6_RKT7_RKT8_RKT9_
0017d08c W _ZN5boost5print6extend5writeINSt6__ndk111__wrap_iterIPcEEA22_cjA2_cPKcS8_SA_S8_SA_S8_SA_A3_cSA_EEvRT_RKT0_RKT1_RKT2_RKT3_RKT4_RKT5_RKT6_RKT7_RKT8_RKT9_RKT10_RKT11_
001806f4 W _ZN5boost5print6extend5writeINSt6__ndk111__wrap_iterIPcEEA23_cfA2_cfS8_fS8_fS8_A5_cPKcEEvRT_RKT0_RKT1_RKT2_RKT3_RKT4_RKT5_RKT6_RKT7_RKT8_RKT9_RKT10_
0018bc2c W _ZN5boost5print6extend5writeINSt6__ndk111__wrap_iterIPcEEA23_cPKcA2_cS9_SA_iA4_cNS0_6detail3hexIjEEA3_cS9_EEvRT_RKT0_RKT1_RKT2_RKT3_RKT4_RKT5_RKT6_RKT7_RKT8_RKT9_
0017d620 W _ZN5boost5print6extend5writeINSt6__ndk111__wrap_iterIPcEEA26_cjA2_cPKcS8_SA_A3_cSA_EEvRT_RKT0_RKT1_RKT2_RKT3_RKT4_RKT5_RKT6_RKT7_
0048e7e8 W _ZN5boost5print6extend5writeINSt6__ndk111__wrap_iterIPcEEA28_cjA5_ciEEvRT_RKT0_RKT1_RKT2_RKT3_
002dc940 W _ZN5boost5print6extend5writeINSt6__ndk111__wrap_iterIPcEEA28_cjA5_cjA33_cEEvRT_RKT0_RKT1_RKT2_RKT3_RKT4_
00184090 W _ZN5boost5print6extend5writeINSt6__ndk111__wrap_iterIPcEEA41_cfA3_cfS8_fS8_fA5_cPKcEEvRT_RKT0_RKT1_RKT2_RKT3_RKT4_RKT5_RKT6_RKT7_RKT8_RKT9_
001892c8 W _ZN5boost5print6extend5writeINSt6__ndk111__wrap_iterIPcEEA53_cfA3_cfS8_fA5_cPKcEEvRT_RKT0_RKT1_RKT2_RKT3_RKT4_RKT5_RKT6_RKT7_
00194244 W _ZN5boost5print6extend5writeINSt6__ndk111__wrap_iterIPcEEA7_cjcyA8_cdA6_cEEvRT_RKT0_RKT1_RKT2_RKT3_RKT4_RKT5_RKT6_
001884d0 W _ZN5boost5print6extend5writeINSt6__ndk111__wrap_iterIPcEEA74_cfA2_cfS8_fS8_fA4_cPKcEEvRT_RKT0_RKT1_RKT2_RKT3_RKT4_RKT5_RKT6_RKT7_RKT8_RKT9_
001880c8 W _ZN5boost5print6extend5writeINSt6__ndk111__wrap_iterIPcEEA80_cfA2_cfS8_fS8_fA4_cPKcEEvRT_RKT0_RKT1_RKT2_RKT3_RKT4_RKT5_RKT6_RKT7_RKT8_RKT9_
00187cc0 W _ZN5boost5print6extend5writeINSt6__ndk111__wrap_iterIPcEEA82_cfA2_cfS8_fS8_fA4_cPKcEEvRT_RKT0_RKT1_RKT2_RKT3_RKT4_RKT5_RKT6_RKT7_RKT8_RKT9_
00253e50 W _ZN5boost5print6extend5writeINSt6__ndk111__wrap_iterIPcEEaKPKcEEvRT_RKNS0_6detail5arrayIT0_T1_EE
002552f4 W _ZN5boost5print6extend5writeINSt6__ndk111__wrap_iterIPcEEfKPKcEEvRT_RKNS0_6detail5arrayIT0_T1_EE
00254354 W _ZN5boost5print6extend5writeINSt6__ndk111__wrap_iterIPcEEhKPKcEEvRT_RKNS0_6detail5arrayIT0_T1_EE
0016bcc4 W _ZN5boost5print6extend5writeINSt6__ndk111__wrap_iterIPcEENS0_6detail3hexIjEEPKcEEvRT_RKT0_RKT1_
00253a38 W _ZN5boost5print6extend5writeINSt6__ndk111__wrap_iterIPcEENS4_IPPKcEEKS8_EEvRT_RKNS0_6detail8iteratorIT0_T1_EE
002556c0 W _ZN5boost5print6extend5writeINSt6__ndk111__wrap_iterIPcEEPKcA2_cS8_S9_S8_S9_S8_EEvRT_RKT0_RKT1_RKT2_RKT3_RKT4_RKT5_RKT6_
0016fed0 W _ZN5boost5print6extend5writeINSt6__ndk111__wrap_iterIPcEEPKcNS0_6detail3padIcEEA2_cA12_cA5_cjEEvRT_RKT0_RKT1_RKT2_RKT3_RKT4_RKT5_
0016cea0 W _ZN5boost5print6extend5writeINSt6__ndk111__wrap_iterIPcEEPKcNS0_6detail3padIcEEA2_cA3_cA5_cyEEvRT_RKT0_RKT1_RKT2_RKT3_RKT4_RKT5_
0016c93c W _ZN5boost5print6extend5writeINSt6__ndk111__wrap_iterIPcEEPKcNS0_6detail3padIcEEA2_cA4_cA5_cjEEvRT_RKT0_RKT1_RKT2_RKT3_RKT4_RKT5_
001a3ab8 W _ZN5boost5print6extend5writeINSt6__ndk111__wrap_iterIPcEEPKcNS0_6detail3padIcEEA2_cA6_cA5_ciEEvRT_RKT0_RKT1_RKT2_RKT3_RKT4_RKT5_
001a45d4 W _ZN5boost5print6extend5writeINSt6__ndk111__wrap_iterIPcEEPKcNS0_6detail3padIcEEA2_cA6_cA5_cjEEvRT_RKT0_RKT1_RKT2_RKT3_RKT4_RKT5_
0016f36c W _ZN5boost5print6extend5writeINSt6__ndk111__wrap_iterIPcEEPKcNS0_6detail3padIcEEA2_cA9_cA5_ciEEvRT_RKT0_RKT1_RKT2_RKT3_RKT4_RKT5_
0017cb58 W _ZN5boost5print6extend5writeINSt6__ndk111__wrap_iterIPcEEPKcS8_A2_cjA3_cS8_EEvRT_RKT0_RKT1_RKT2_RKT3_RKT4_RKT5_
00254864 W _ZN5boost5print6extend5writeINSt6__ndk111__wrap_iterIPcEEsKPKcEEvRT_RKNS0_6detail5arrayIT0_T1_EE
00254de4 W _ZN5boost5print6extend5writeINSt6__ndk111__wrap_iterIPcEEtKPKcEEvRT_RKNS0_6detail5arrayIT0_T1_EE
0017f904 W _ZN5boost5print6extend6lengthIA13_cjA2_cdS4_dA3_cPKcEEjRKT_RKT0_RKT1_RKT2_RKT3_RKT4_RKT5_RKT6_
0017fe68 W _ZN5boost5print6extend6lengthIA13_cjA2_cdS4_djS4_dS4_dA3_cPKcEEjRKT_RKT0_RKT1_RKT2_RKT3_RKT4_RKT5_RKT6_RKT7_RKT8_RKT9_RKT10_RKT11_
0017de3c W _ZN5boost5print6extend6lengthIA14_cjA2_chS4_hS4_hS4_hA3_cPKcEEjRKT_RKT0_RKT1_RKT2_RKT3_RKT4_RKT5_RKT6_RKT7_RKT8_RKT9_RKT10_
0018a5a8 W _ZN5boost5print6extend6lengthIA19_cjA5_ciA2_ciS5_iS5_iA6_cPKcEEjRKT_RKT0_RKT1_RKT2_RKT3_RKT4_RKT5_RKT6_RKT7_RKT8_RKT9_RKT10_
0018d6b4 W _ZN5boost5print6extend6lengthIA21_cjA2_cdS4_dA3_cPKcEEjRKT_RKT0_RKT1_RKT2_RKT3_RKT4_RKT5_RKT6_
0018cd88 W _ZN5boost5print6extend6lengthIA21_cjA5_cfA2_cfS5_fS5_fA6_cPKcEEjRKT_RKT0_RKT1_RKT2_RKT3_RKT4_RKT5_RKT6_RKT7_RKT8_RKT9_RKT10_
0017cf28 W _ZN5boost5print6extend6lengthIA22_cjA2_cPKcS4_S6_S4_S6_S4_S6_A3_cS6_EEjRKT_RKT0_RKT1_RKT2_RKT3_RKT4_RKT5_RKT6_RKT7_RKT8_RKT9_RKT10_
0018badc W _ZN5boost5print6extend6lengthIA23_cPKcA2_cS5_S6_iA4_cNS0_6detail3hexIjEEA3_cS5_EEjRKT_RKT0_RKT1_RKT2_RKT3_RKT4_RKT5_RKT6_RKT7_RKT8_
00193f68 W _ZN5boost5print6extend6lengthIA7_cjcyA8_cdA6_cEEjRKT_RKT0_RKT1_RKT2_RKT3_RKT4_RKT5_
00253d68 W _ZN5boost5print6extend6lengthIaKPKcEEjRKNS0_6detail5arrayIT_T0_EE
0025520c W _ZN5boost5print6extend6lengthIfKPKcEEjRKNS0_6detail5arrayIT_T0_EE
00254294 W _ZN5boost5print6extend6lengthIhKPKcEEjRKNS0_6detail5arrayIT_T0_EE
002539ac W _ZN5boost5print6extend6lengthINSt6__ndk111__wrap_iterIPPKcEEKS6_EEjRKNS0_6detail8iteratorIT_T0_EE
00254738 W _ZN5boost5print6extend6lengthIsKPKcEEjRKNS0_6detail5arrayIT_T0_EE
00254ce0 W _ZN5boost5print6extend6lengthItKPKcEEjRKNS0_6detail5arrayIT_T0_EE
00169fc8 W _ZN5boost5print6printfINSt6__ndk112basic_stringIcNS2_11char_traitsIcEENS2_9allocatorIcEEEEEEjRT_PKcRSt9__va_list
00168730 W _ZN5boost5print6printfINSt6__ndk112basic_stringIcNS2_11char_traitsIcEENS2_9allocatorIcEEEEEEjRT_PKcz
004c96c4 W _ZN5ir_if5as_ifEv
004c969c W _ZN5ir_if6acceptEP10ir_visitor
004ce374 T _ZN5ir_if6acceptEP23ir_hierarchical_visitor
004c9698 W _ZN5ir_ifD0Ev
00670c38 B _ZN5Regal10Conversion10rgba_4444_E
00670c3c B _ZN5Regal10Conversion10rgba_5551_E
00670c44 B _ZN5Regal10Conversion10rgba_8888_E
00670c18 B _ZN5Regal10Conversion12RegistryBase13conversionMapE
00670c24 B _ZN5Regal10Conversion4a_8_E
00670c28 B _ZN5Regal10Conversion4l_8_E
00488908 T _ZN5Regal10Conversion4ReadIhEEjPKh
004888d8 T _ZN5Regal10Conversion4ReadIjEEjPKh
004888e0 T _ZN5Regal10Conversion4ReadINS0_8uint24_tEEEjPKh
004888f8 T _ZN5Regal10Conversion4ReadItEEjPKh
00488ff8 W _ZN5Regal10Conversion5PixelItLj2ELj61440ELj3840ELj240ELj15EE8Unpack32EPKvPjj
00489168 W _ZN5Regal10Conversion5PixelItLj2ELj63488ELj1984ELj62ELj1EE8Unpack32EPKvPjj
00488958 T _ZN5Regal10Conversion5WriteIhEEvPhj
00488910 T _ZN5Regal10Conversion5WriteIjEEvPhj
00488930 T _ZN5Regal10Conversion5WriteINS0_8uint24_tEEEvPhj
00488948 T _ZN5Regal10Conversion5WriteItEEvPhj
00670c30 B _ZN5Regal10Conversion6la_88_E
00488b7c W _ZN5Regal10Conversion8RegistryILj6406ELj5121ENS0_5PixelIhLj1ELj0ELj0ELj0ELj255EEEE22GetPackedPixelByteSizeEv
00488b8c W _ZN5Regal10Conversion8RegistryILj6406ELj5121ENS0_5PixelIhLj1ELj0ELj0ELj0ELj255EEEE24GetPackedPixelComponentsEv
00488b84 W _ZN5Regal10Conversion8RegistryILj6406ELj5121ENS0_5PixelIhLj1ELj0ELj0ELj0ELj255EEEE27GetPackedPixelAlignmentSizeEv
00488b94 W _ZN5Regal10Conversion8RegistryILj6406ELj5121ENS0_5PixelIhLj1ELj0ELj0ELj0ELj255EEEED0Ev
00488f28 W _ZN5Regal10Conversion8RegistryILj6407ELj33635ENS0_5PixelItLj2ELj63488ELj2016ELj31ELj0EEEE22GetPackedPixelByteSizeEv
00488f38 W _ZN5Regal10Conversion8RegistryILj6407ELj33635ENS0_5PixelItLj2ELj63488ELj2016ELj31ELj0EEEE24GetPackedPixelComponentsEv
00488f30 W _ZN5Regal10Conversion8RegistryILj6407ELj33635ENS0_5PixelItLj2ELj63488ELj2016ELj31ELj0EEEE27GetPackedPixelAlignmentSizeEv
00488f40 W _ZN5Regal10Conversion8RegistryILj6407ELj33635ENS0_5PixelItLj2ELj63488ELj2016ELj31ELj0EEEED0Ev
0048929c W _ZN5Regal10Conversion8RegistryILj6407ELj5121ENS0_8PixelAnyINS0_8uint24_tELj3ELj255ELj65280ELj16711680ELj0EEEE22GetPackedPixelByteSizeEv
004892ac W _ZN5Regal10Conversion8RegistryILj6407ELj5121ENS0_8PixelAnyINS0_8uint24_tELj3ELj255ELj65280ELj16711680ELj0EEEE24GetPackedPixelComponentsEv
004892a4 W _ZN5Regal10Conversion8RegistryILj6407ELj5121ENS0_8PixelAnyINS0_8uint24_tELj3ELj255ELj65280ELj16711680ELj0EEEE27GetPackedPixelAlignmentSizeEv
004892b4 W _ZN5Regal10Conversion8RegistryILj6407ELj5121ENS0_8PixelAnyINS0_8uint24_tELj3ELj255ELj65280ELj16711680ELj0EEEED0Ev
00488fdc W _ZN5Regal10Conversion8RegistryILj6408ELj32819ENS0_5PixelItLj2ELj61440ELj3840ELj240ELj15EEEE22GetPackedPixelByteSizeEv
00488fec W _ZN5Regal10Conversion8RegistryILj6408ELj32819ENS0_5PixelItLj2ELj61440ELj3840ELj240ELj15EEEE24GetPackedPixelComponentsEv
00488fe4 W _ZN5Regal10Conversion8RegistryILj6408ELj32819ENS0_5PixelItLj2ELj61440ELj3840ELj240ELj15EEEE27GetPackedPixelAlignmentSizeEv
00488ff4 W _ZN5Regal10Conversion8RegistryILj6408ELj32819ENS0_5PixelItLj2ELj61440ELj3840ELj240ELj15EEEED0Ev
0048914c W _ZN5Regal10Conversion8RegistryILj6408ELj32820ENS0_5PixelItLj2ELj63488ELj1984ELj62ELj1EEEE22GetPackedPixelByteSizeEv
0048915c W _ZN5Regal10Conversion8RegistryILj6408ELj32820ENS0_5PixelItLj2ELj63488ELj1984ELj62ELj1EEEE24GetPackedPixelComponentsEv
00489154 W _ZN5Regal10Conversion8RegistryILj6408ELj32820ENS0_5PixelItLj2ELj63488ELj1984ELj62ELj1EEEE27GetPackedPixelAlignmentSizeEv
00489164 W _ZN5Regal10Conversion8RegistryILj6408ELj32820ENS0_5PixelItLj2ELj63488ELj1984ELj62ELj1EEEED0Ev
00488d1c W _ZN5Regal10Conversion8RegistryILj6408ELj32848ENS0_5PixelItLj2ELj31ELj992ELj31744ELj0EEEE22GetPackedPixelByteSizeEv
00488d2c W _ZN5Regal10Conversion8RegistryILj6408ELj32848ENS0_5PixelItLj2ELj31ELj992ELj31744ELj0EEEE24GetPackedPixelComponentsEv
00488d24 W _ZN5Regal10Conversion8RegistryILj6408ELj32848ENS0_5PixelItLj2ELj31ELj992ELj31744ELj0EEEE27GetPackedPixelAlignmentSizeEv
00488d34 W _ZN5Regal10Conversion8RegistryILj6408ELj32848ENS0_5PixelItLj2ELj31ELj992ELj31744ELj0EEEED0Ev
00489354 W _ZN5Regal10Conversion8RegistryILj6408ELj5121ENS0_5PixelIjLj4ELj255ELj65280ELj16711680ELj4278190080EEEE22GetPackedPixelByteSizeEv
00489364 W _ZN5Regal10Conversion8RegistryILj6408ELj5121ENS0_5PixelIjLj4ELj255ELj65280ELj16711680ELj4278190080EEEE24GetPackedPixelComponentsEv
0048935c W _ZN5Regal10Conversion8RegistryILj6408ELj5121ENS0_5PixelIjLj4ELj255ELj65280ELj16711680ELj4278190080EEEE27GetPackedPixelAlignmentSizeEv
0048936c W _ZN5Regal10Conversion8RegistryILj6408ELj5121ENS0_5PixelIjLj4ELj255ELj65280ELj16711680ELj4278190080EEEED0Ev
00488bd0 W _ZN5Regal10Conversion8RegistryILj6409ELj5121ENS0_5PixelIhLj1ELj255ELj0ELj0ELj0EEEE22GetPackedPixelByteSizeEv
00488be0 W _ZN5Regal10Conversion8RegistryILj6409ELj5121ENS0_5PixelIhLj1ELj255ELj0ELj0ELj0EEEE24GetPackedPixelComponentsEv
00488bd8 W _ZN5Regal10Conversion8RegistryILj6409ELj5121ENS0_5PixelIhLj1ELj255ELj0ELj0ELj0EEEE27GetPackedPixelAlignmentSizeEv
00488be8 W _ZN5Regal10Conversion8RegistryILj6409ELj5121ENS0_5PixelIhLj1ELj255ELj0ELj0ELj0EEEED0Ev
00488de0 W _ZN5Regal10Conversion8RegistryILj6410ELj5121ENS0_5PixelItLj2ELj255ELj0ELj0ELj65280EEEE22GetPackedPixelByteSizeEv
00488df0 W _ZN5Regal10Conversion8RegistryILj6410ELj5121ENS0_5PixelItLj2ELj255ELj0ELj0ELj65280EEEE24GetPackedPixelComponentsEv
00488de8 W _ZN5Regal10Conversion8RegistryILj6410ELj5121ENS0_5PixelItLj2ELj255ELj0ELj0ELj65280EEEE27GetPackedPixelAlignmentSizeEv
00488df8 W _ZN5Regal10Conversion8RegistryILj6410ELj5121ENS0_5PixelItLj2ELj255ELj0ELj0ELj65280EEEED0Ev
00670c2c B _ZN5Regal10Conversion8rgb_555_E
00670c34 B _ZN5Regal10Conversion8rgb_565_E
00670c40 B _ZN5Regal10Conversion8rgb_888_E
0025597c T _ZN5Regal10Dispatcher5eraseERNS_13DispatchTableE
00255a4c T _ZN5Regal10Dispatcher6insertERNS_13DispatchTableES2_
002558c8 T _ZN5Regal10Dispatcher9push_backERNS_13DispatchTableEb
00255884 T _ZN5Regal10DispatcherC1Ev
00255884 T _ZN5Regal10DispatcherC2Ev
002558a0 T _ZN5Regal10DispatcherD1Ev
002558a0 T _ZN5Regal10DispatcherD2Ev
001903f0 T _ZN5Regal10fileExistsEPKc
00670708 B _ZN5Regal10sc2rcMutexE
0067070c B _ZN5Regal10th2rcMutexE
002de69c W _ZN5Regal11ClientState10PixelStore10transitionERNS_15DispatchTableGLERS1_
002d0b30 W _ZN5Regal11ClientState10PixelStore12glPixelStoreIfEEvjT_
002d0cc0 W _ZN5Regal11ClientState10PixelStore12glPixelStoreIiEEvjT_
002de254 W _ZN5Regal11ClientState11VertexArray10transitionERNS_15DispatchTableGLERS1_b
002df520 W _ZN5Regal11ClientState11VertexArray15glDeleteBuffersEiPKj
002dd308 W _ZN5Regal11ClientState11VertexArray19glInterleavedArraysEjiPKv
002df3e4 W _ZN5Regal11ClientState11VertexArray21glClientActiveTextureEj
002e4fcc W _ZN5Regal11ClientState11VertexArray22glVertexAttribLPointerEjijiPKv
002dfa50 W _ZN5Regal11ClientState11VertexArray34glVertexArrayVertexAttribOffsetEXTEjjjijhii
002e08bc W _ZN5Regal11ClientState11VertexArray35glVertexArrayVertexAttribIOffsetEXTEjjjijii
001a8664 W _ZN5Regal11ClientState11VertexArray5ResetEv
001a8304 W _ZN5Regal11ClientState11VertexArrayC2Ev
002dea20 W _ZN5Regal11ClientState16NamedVertexArray10transitionERNS_15DispatchTableGLERS1_NS0_7_vaNameEb
002ded14 W _ZN5Regal11ClientState18GenericVertexArray10transitionERNS_15DispatchTableGLERS1_j
001bb694 T _ZN5Regal11ContextInfo13stringSetFindERKNSt6__ndk13setINS1_12basic_stringIcNS1_11char_traitsIcEENS1_9allocatorIcEEEENS1_4lessIS8_EENS6_IS8_EEEERKS8_
001a97ec T _ZN5Regal11ContextInfo4initERKNS_12RegalContextE
001a96a0 T _ZN5Regal11ContextInfoC1Ev
001a96a0 T _ZN5Regal11ContextInfoC2Ev
001a977c T _ZN5Regal11ContextInfoD1Ev
001a977c T _ZN5Regal11ContextInfoD2Ev
0048897c W _ZN5Regal11IConversionD2Ev
00255f50 T _ZN5Regal12DispatcherGLC1Ev
00255f50 T _ZN5Regal12DispatcherGLC2Ev
00256038 T _ZN5Regal12DispatcherGLD1Ev
00256038 T _ZN5Regal12DispatcherGLD2Ev
001a7e9c T _ZN5Regal12RegalContext11parkContextERNS_19DispatchTableGlobalE
001a7ea4 T _ZN5Regal12RegalContext13unparkContextERNS_19DispatchTableGlobalE
001a54e8 T _ZN5Regal12RegalContext4InitEv
001a7b8c T _ZN5Regal12RegalContext7CleanupEv
001a53fc T _ZN5Regal12RegalContextC1Ev
001a53fc T _ZN5Regal12RegalContextC2Ev
001a77fc T _ZN5Regal12RegalContextD1Ev
001a77fc T _ZN5Regal12RegalContextD2Ev
0018fd7c T _ZN5Regal14GetProcAddressEPKc
000dedf0 T _ZN5Regal14ShaderInstance10GetUniformERNS_15DispatchTableGLEjiijPv
000def68 T _ZN5Regal14ShaderInstance10SetUniformERNS_15DispatchTableGLEiijPKv
000de4e0 T _ZN5Regal14ShaderInstance11GetTypeSizeEj
000e006c T _ZN5Regal14ShaderInstance11InitProgramERNS_15DispatchTableGLEjRNS0_7ProgramE
000dff5c T _ZN5Regal14ShaderInstance12CreateShaderERNS_15DispatchTableGLERKNS0_12ShaderSourceE
000de358 T _ZN5Regal14ShaderInstance13GetMatrixDimsEj
000dfd00 T _ZN5Regal14ShaderInstance15GetShaderSourceERNS_15DispatchTableGLEjRNS0_12ShaderSourceE
000dfbb4 T _ZN5Regal14ShaderInstance15ProgramInstance14UpdateUniformsERNS_15DispatchTableGLERKNS0_7ProgramE
000dfa30 T _ZN5Regal14ShaderInstance15ProgramInstance18InitializeUniformsERNS_15DispatchTableGLERKNS0_7ProgramE
000dfe00 T _ZN5Regal14ShaderInstance17GetProgramSourcesERNS_15DispatchTableGLEjRNSt6__ndk16vectorINS0_12ShaderSourceENS3_9allocatorIS5_EEEE
000ddae0 T _ZN5Regal14ShaderInstance17GetUniformApiTypeEj
000e03fc T _ZN5Regal14ShaderInstance19InitProgramInstanceERNS_15DispatchTableGLERKNS0_7ProgramEjRNS0_15ProgramInstanceE
000de48c T _ZN5Regal14ShaderInstance20GetMatrixElementSizeEj
000e05cc T _ZN5Regal14ShaderInstance21CreateProgramInstanceERNS_15DispatchTableGLERKNS0_7ProgramERKNSt6__ndk16vectorINS0_12ShaderSourceENS6_9allocatorIS8_EEEERNS0_15ProgramInstanceE
000df2d0 T _ZN5Regal14ShaderInstance7Program10AddUniformERKNSt6__ndk112basic_stringIcNS2_11char_traitsIcEENS2_9allocatorIcEEEEiij
000df6d8 T _ZN5Regal14ShaderInstance7Program18UpdateUniformStoreEiiPKv
001c12a4 T _ZN5Regal15DispatchTableGL6doCallEPPv
0025603c T _ZN5Regal16DispatcherGlobalC1Ev
0025603c T _ZN5Regal16DispatcherGlobalC2Ev
002560fc T _ZN5Regal16DispatcherGlobalD1Ev
002560fc T _ZN5Regal16DispatcherGlobalD2Ev
006708ec B _ZN5Regal16dispatcherGlobalE
001c12e0 T _ZN5Regal19DispatchTableGlobal6doCallEPPv
00255864 T _ZN5Regal19DispatchTableGlobalC1Ev
00255864 T _ZN5Regal19DispatchTableGlobalC2Ev
00255880 T _ZN5Regal19DispatchTableGlobalD1Ev
00255880 T _ZN5Regal19DispatchTableGlobalD2Ev
006707e4 B _ZN5Regal19dispatchTableGlobalE
0025612c T _ZN5Regal20InitDispatchTableEmuERNS_15DispatchTableGLE
002e766c T _ZN5Regal20InitDispatchTableLogERNS_15DispatchTableGLE
00488980 T _ZN5Regal22GetConversionInterfaceEjj
003550d8 T _ZN5Regal26InitDispatchTableGlobalLogERNS_19DispatchTableGlobalE
000ed7c0 W _ZN5Regal2r37Matrix4IfE9MultRightERKS2_
002e0eec W _ZN5Regal3Emu10BaseVertex14adjust_indicesEijPKvi
002e0fd8 W _ZN5Regal3Emu10BaseVertex24glDrawElementsBaseVertexERNS_12RegalContextEjijPKvi
002e123c W _ZN5Regal3Emu10BaseVertex29glDrawRangeElementsBaseVertexERNS_12RegalContextEjjjijPKvi
002e1454 W _ZN5Regal3Emu10BaseVertex29glMultiDrawElementsBaseVertexERNS_12RegalContextEjPKijPKPKviS5_
002e1100 W _ZN5Regal3Emu10BaseVertex33glDrawElementsInstancedBaseVertexERNS_12RegalContextEjijPKvii
002e0a04 W _ZN5Regal3Emu10BaseVertex45glDrawElementsInstancedBaseVertexBaseInstanceERNS_12RegalContextEjijPKviij
002e0b50 W _ZN5Regal3Emu10BaseVertex6adjustERNS_12RegalContextERNS_15DispatchTableGLEi
0019913c T _ZN5Regal3Emu12TextureState14GetLevelState_Ei
001992e8 T _ZN5Regal3Emu12TextureState16GetFormatAndTypeEiPjS2_
001991f0 T _ZN5Regal3Emu12TextureState16SetFormatAndTypeEijj
001993b0 T _ZN5Regal3Emu12TextureState22SimulateComputeMipMapsEv
00198e9c T _ZN5Regal3Emu12TextureState4BindEPNS0_16TextureUnitStateE
00198e2c T _ZN5Regal3Emu12TextureState5ResetEv
00198f00 T _ZN5Regal3Emu12TextureState6UnbindEPNS0_16TextureUnitStateE
00198dd4 T _ZN5Regal3Emu12TextureState9UnbindAllEv
00198d5c T _ZN5Regal3Emu12TextureStateD1Ev
00198d5c T _ZN5Regal3Emu12TextureStateD2Ev
002dbef0 W _ZN5Regal3Emu14NameTranslator12ToDriverNameEj
002dcfbc W _ZN5Regal3Emu14NameTranslator3GenEv
002dccdc W _ZN5Regal3Emu14NameTranslator6DeleteEj
001a8b58 W _ZN5Regal3Emu14NameTranslatorC2Ev
00198b1c T _ZN5Regal3Emu15ConvertedBuffer11ConvertFromEiijjPKv
00198b00 T _ZN5Regal3Emu15ConvertedBufferC1ERKNS0_23PixelStorageStateGLES20Ejj
00198b00 T _ZN5Regal3Emu15ConvertedBufferC2ERKNS0_23PixelStorageStateGLES20Ejj
00199658 T _ZN5Regal3Emu15TextureStateRef5ResetEPNS0_16TextureUnitStateEPNS0_12TextureStateE
001995a8 T _ZN5Regal3Emu15TextureStateRefC1Ev
001995a8 T _ZN5Regal3Emu15TextureStateRefC2Ev
001995b8 T _ZN5Regal3Emu15TextureStateRefD1Ev
001995b8 T _ZN5Regal3Emu15TextureStateRefD2Ev
00199908 T _ZN5Regal3Emu16TextureUnitState4BindEjPNS0_12TextureStateE
00198f80 T _ZN5Regal3Emu16TextureUnitState6UnbindEPNS0_12TextureStateE
00199758 T _ZN5Regal3Emu16TextureUnitState9UnbindAllEv
001914a4 T _ZN5Regal3Emu16validTextureEnumEj
001914b0 T _ZN5Regal3Emu16validTextureUnitEj
00198af4 T _ZN5Regal3Emu23PixelStorageStateGLES205ResetEv
00594d48 R _ZN5Regal3Emu2So10index2EnumE
0048d000 T _ZN5Regal3Emu2So11BindSamplerEjj
0048dd64 T _ZN5Regal3Emu2So11BindTextureERNS_12RegalContextEjj
0048d83c T _ZN5Regal3Emu2So11BindTextureERNS_12RegalContextEjjj
0048cbec T _ZN5Regal3Emu2So11GenSamplersEiPj
0048d2bc T _ZN5Regal3Emu2So11GenTexturesERNS_12RegalContextEiPj
0048d7f0 T _ZN5Regal3Emu2So13ActiveTextureERNS_12RegalContextEj
002dafb0 W _ZN5Regal3Emu2So13TexParametervIfEEbRNS_12RegalContextEjjPT_
002db750 W _ZN5Regal3Emu2So13TexParametervIiEEbRNS_12RegalContextEjjPT_
002db380 W _ZN5Regal3Emu2So13TexParametervIKfEEbRNS_12RegalContextEjjPT_
002dbb20 W _ZN5Regal3Emu2So13TexParametervIKiEEbRNS_12RegalContextEjjPT_
002e04ec W _ZN5Regal3Emu2So13TexParametervIKjEEbRNS_12RegalContextEjjPT_
002ca3c4 W _ZN5Regal3Emu2So13TT_Enum2IndexEj
0048cda8 T _ZN5Regal3Emu2So14DeleteSamplersEiPKj
0048d4c4 T _ZN5Regal3Emu2So14DeleteTexturesERNS_12RegalContextEiPKj
002cea60 W _ZN5Regal3Emu2So16GetTexParametervIfEEbRNS_12RegalContextEjjPT_
002cf540 W _ZN5Regal3Emu2So16GetTexParametervIiEEbRNS_12RegalContextEjjPT_
002e006c W _ZN5Regal3Emu2So16GetTexParametervIjEEbRNS_12RegalContextEjjPT_
002e2f3c W _ZN5Regal3Emu2So17SamplerParametervIfEEbRNS_12RegalContextEjjPT_
002e3974 W _ZN5Regal3Emu2So17SamplerParametervIiEEbRNS_12RegalContextEjjPT_
002e3458 W _ZN5Regal3Emu2So17SamplerParametervIKfEEbRNS_12RegalContextEjjPT_
002e2504 W _ZN5Regal3Emu2So17SamplerParametervIKiEEbRNS_12RegalContextEjjPT_
002e2a20 W _ZN5Regal3Emu2So17SamplerParametervIKjEEbRNS_12RegalContextEjjPT_
0048df20 T _ZN5Regal3Emu2So17SendStateToDriverERNS_12RegalContextEjjRNS1_13SamplingStateES5_
002e2060 W _ZN5Regal3Emu2So20GetSamplerParametervIfEEbRNS_12RegalContextEjjPT_
002e15bc W _ZN5Regal3Emu2So20GetSamplerParametervIiEEbRNS_12RegalContextEjjPT_
002e1b9c W _ZN5Regal3Emu2So20GetSamplerParametervIjEEbRNS_12RegalContextEjjPT_
002c9f78 W _ZN5Regal3Emu2So3GetIdEEbjPT_
002cc114 W _ZN5Regal3Emu2So3GetIfEEbjPT_
002ce088 W _ZN5Regal3Emu2So3GetIiEEbjPT_
002e3e90 W _ZN5Regal3Emu2So3GetIxEEbjPT_
0048dd8c T _ZN5Regal3Emu2So7PreDrawERNS_12RegalContextE
0048d280 T _ZN5Regal3Emu2So9IsSamplerEj
000f4530 T _ZN5Regal3Emu30NeedsUserShaderProgramInstanceERNS0_3Iff5State5StoreE
002c61c0 W _ZN5Regal3Emu3Dsa10RestoreGetEPNS_12RegalContextEj
002e59bc W _ZN5Regal3Emu3Dsa11GetIndexedvIdEEbPNS_12RegalContextEjjPT_
002e6320 W _ZN5Regal3Emu3Dsa11GetIndexedvIfEEbPNS_12RegalContextEjjPT_
002e7564 W _ZN5Regal3Emu3Dsa16IsEnabledIndexedEPNS_12RegalContextEjj
002e51d4 W _ZN5Regal3Emu3Dsa17DeleteAsmProgramsEPNS_12RegalContextEiPKj
002e6884 W _ZN5Regal3Emu3Dsa19ClientAttribDefaultEPNS_12RegalContextEj
002c4480 W _ZN5Regal3Emu3Dsa7RestoreEPNS_12RegalContextE
000edd5c T _ZN5Regal3Emu3Iff10DepthRangeEff
000edb84 T _ZN5Regal3Emu3Iff10LoadMatrixERKNS_2r37Matrix4IfEE
000ed32c T _ZN5Regal3Emu3Iff10MatrixLoadEjRKNS_2r37Matrix4IfEE
000ed67c T _ZN5Regal3Emu3Iff10MatrixMultEjRKNS_2r37Matrix4IfEE
000ece04 T _ZN5Regal3Emu3Iff10MatrixPushEj
000edcf4 T _ZN5Regal3Emu3Iff10MultMatrixERKNS_2r37Matrix4IfEE
000edb54 T _ZN5Regal3Emu3Iff10PushMatrixEv
000e48b0 T _ZN5Regal3Emu3Iff10RestoreVaoEPNS_12RegalContextE
000ecae0 T _ZN5Regal3Emu3Iff10ShadeModelEj
000e4c9c T _ZN5Regal3Emu3Iff11EnableArrayEPNS_12RegalContextEj
000f6a50 T _ZN5Regal3Emu3Iff11LinkProgramEPNS_12RegalContextEj
000e5144 T _ZN5Regal3Emu3Iff12ColorPointerEPNS_12RegalContextEijiPKv
000ee164 T _ZN5Regal3Emu3Iff12CreateShaderEPNS_12RegalContextEj
000e4f48 T _ZN5Regal3Emu3Iff12DisableArrayEPNS_12RegalContextEj
000edb74 T _ZN5Regal3Emu3Iff12LoadIdentityEv
002da5ac W _ZN5Regal3Emu3Iff12MatrixRotateIdEEvjT_S3_S3_S3_
002da7d8 W _ZN5Regal3Emu3Iff12MatrixRotateIfEEvjT_S3_S3_S3_
000f4670 T _ZN5Regal3Emu3Iff12ShaderSourceEPNS_12RegalContextEjiPKPKcPKi
000eb744 T _ZN5Regal3Emu3Iff12ShadowEnableEj
000ecb74 T _ZN5Regal3Emu3Iff13ColorMaterialEjj
000eb774 T _ZN5Regal3Emu3Iff13EnableIndexedEjj
002c7b9c W _ZN5Regal3Emu3Iff13glGetBooleanvEPNS_12RegalContextEjPh
000e55ec T _ZN5Regal3Emu3Iff13InitImmediateERNS_12RegalContextE
000e5dec T _ZN5Regal3Emu3Iff13IsVertexArrayEPNS_12RegalContextEj
000e50b8 T _ZN5Regal3Emu3Iff13NormalPointerEPNS_12RegalContextEjiPKv
000eb798 T _ZN5Regal3Emu3Iff13ShadowDisableEj
000ebfc0 T _ZN5Regal3Emu3Iff13ShadowTexInfoEji
000e500c T _ZN5Regal3Emu3Iff13VertexPointerEPNS_12RegalContextEijiPKv
000eb7c8 T _ZN5Regal3Emu3Iff14DisableIndexedEjj
000e6348 T _ZN5Regal3Emu3Iff14ProvokeElementEPNS_12RegalContextEi
000ef09c T _ZN5Regal3Emu3Iff14UpdateUniformsEPNS_12RegalContextE
000e5a0c T _ZN5Regal3Emu3Iff15BindVertexArrayEPNS_12RegalContextEj
000e52b4 T _ZN5Regal3Emu3Iff15EdgeFlagPointerEPNS_12RegalContextEiPKv
000e5234 T _ZN5Regal3Emu3Iff15FogCoordPointerEPNS_12RegalContextEjiPKv
000e5d54 T _ZN5Regal3Emu3Iff15glDeleteBuffersEPNS_12RegalContextEiPKj
000e48fc T _ZN5Regal3Emu3Iff15InitVertexArrayERNS_12RegalContextE
000e5338 T _ZN5Regal3Emu3Iff15TexCoordPointerEPNS_12RegalContextEijiPKv
000ed108 T _ZN5Regal3Emu3Iff15UpdateMatrixVerEv
000eb6f8 T _ZN5Regal3Emu3Iff16ShadowMatrixModeEj
000ebb1c T _ZN5Regal3Emu3Iff16ShadowTexBindingEjj
000eb7ec T _ZN5Regal3Emu3Iff16ShadowUseProgramEj
000ea7d0 T _ZN5Regal3Emu3Iff16UseShaderProgramEPNS_12RegalContextE
000e4ab4 T _ZN5Regal3Emu3Iff17EnableClientStateEPNS_12RegalContextEj
000e5e14 T _ZN5Regal3Emu3Iff17glBindVertexArrayEPNS_12RegalContextEj
000e640c T _ZN5Regal3Emu3Iff17InitFixedFunctionERNS_12RegalContextE
000ebb40 T _ZN5Regal3Emu3Iff17ShadowTextureInfoEjji
000e4a1c T _ZN5Regal3Emu3Iff18ClientStateToIndexEj
000e4d60 T _ZN5Regal3Emu3Iff18DisableClientStateEPNS_12RegalContextEj
000ed1b0 T _ZN5Regal3Emu3Iff18MatrixLoadIdentityEj
000ebe68 T _ZN5Regal3Emu3Iff18ShadowMultiTexInfoEjji
000edce0 T _ZN5Regal3Emu3Iff19LoadTransposeMatrixERKNS_2r37Matrix4IfEE
000ed480 T _ZN5Regal3Emu3Iff19MatrixLoadTransposeEjRKNS_2r37Matrix4IfEE
000ed970 T _ZN5Regal3Emu3Iff19MatrixMultTransposeEjRKNS_2r37Matrix4IfEE
000edd08 T _ZN5Regal3Emu3Iff19MultTransposeMatrixERKNS_2r37Matrix4IfEE
000eb70c T _ZN5Regal3Emu3Iff19ShadowActiveTextureEj
000e35b8 T _ZN5Regal3Emu3Iff19UserProgramInstance14LocateUniformsEPNS_12RegalContextERNS_15DispatchTableGLE
000e5cc8 T _ZN5Regal3Emu3Iff20glDeleteVertexArraysEPNS_12RegalContextEiPKj
000e51bc T _ZN5Regal3Emu3Iff21SecondaryColorPointerEPNS_12RegalContextEijiPKv
000eb658 T _ZN5Regal3Emu3Iff21SetCurrentMatrixStackEj
000eb910 T _ZN5Regal3Emu3Iff21ShadowMultiTexBindingEjjj
000efcd0 T _ZN5Regal3Emu3Iff23ClearVersionsForProgramEPNS_12RegalContextE
000eb114 T _ZN5Regal3Emu3Iff23UseFixedFunctionProgramEPNS_12RegalContextE
000efd94 T _ZN5Regal3Emu3Iff25GetFixedFunctionStateHashEv
000eb8fc T _ZN5Regal3Emu3Iff25ShadowBindProgramPipelineEj
000e5e30 T _ZN5Regal3Emu3Iff25ShadowClientActiveTextureEj
000f0138 T _ZN5Regal3Emu3Iff31CreateFixedFunctionVertexShaderEPNS_12RegalContextE
000f02f0 T _ZN5Regal3Emu3Iff33CreateFixedFunctionFragmentShaderEPNS_12RegalContextE
000e605c T _ZN5Regal3Emu3Iff3EndEPNS_12RegalContextE
002c59b8 W _ZN5Regal3Emu3Iff3FogIfEEvjT_
002c5dbc W _ZN5Regal3Emu3Iff3FogIiEEvjT_
002c5be0 W _ZN5Regal3Emu3Iff3FogIPKfEEvjT_
002c5fb4 W _ZN5Regal3Emu3Iff3FogIPKiEEvjT_
002c9a9c W _ZN5Regal3Emu3Iff3GetIdEEbPNS_12RegalContextEjPT_
002cbcac W _ZN5Regal3Emu3Iff3GetIfEEbPNS_12RegalContextEjPT_
002cdbd0 W _ZN5Regal3Emu3Iff3GetIiEEbPNS_12RegalContextEjPT_
000ee27c T _ZN5Regal3Emu3Iff4InitERNS_12RegalContextE
000e5f64 T _ZN5Regal3Emu3Iff5BeginEPNS_12RegalContextEj
000e60b0 T _ZN5Regal3Emu3Iff5FlushEPNS_12RegalContextE
000e14cc T _ZN5Regal3Emu3Iff5State10SetTexInfoERNS1_7VersionEjRNS1_11TextureUnitE
000e1b10 T _ZN5Regal3Emu3Iff5State11GetMaterialEPS1_jjPf
000e18ec T _ZN5Regal3Emu3Iff5State11SetMaterialEPS1_jjPKf
000e25d0 T _ZN5Regal3Emu3Iff5State12SetAlphaFuncEPS1_NS1_11CompareFuncEf
000f6bd8 W _ZN5Regal3Emu3Iff5State12StoreUniformC2Ev
000e2800 T _ZN5Regal3Emu3Iff5State28HighestPriorityTextureEnableEj
000ee484 T _ZN5Regal3Emu3Iff5State7ProcessEPS1_
000e2680 T _ZN5Regal3Emu3Iff5State7SetClipEPS1_jPKf
000e152c T _ZN5Regal3Emu3Iff5State8SetLightEPS1_jjPKf
000e2534 T _ZN5Regal3Emu3Iff5State9GetTexgenEPS1_ijPf
000e10a0 T _ZN5Regal3Emu3Iff5State9SetEnableEPS1_bj
000e1cd4 T _ZN5Regal3Emu3Iff5State9SetTexgenEPS1_ijPKf
002ca110 W _ZN5Regal3Emu3Iff5VaGetIdEEbPNS_12RegalContextEjPT_
002cc2a8 W _ZN5Regal3Emu3Iff5VaGetIfEEbPNS_12RegalContextEjPT_
002c818c W _ZN5Regal3Emu3Iff5VaGetIiEEbPNS_12RegalContextEjPT_
000eca58 T _ZN5Regal3Emu3Iff6TexEnvEjjjf
000eca9c T _ZN5Regal3Emu3Iff6TexEnvEjjji
000ec110 T _ZN5Regal3Emu3Iff6TexEnvEjjjPKf
000ec2d8 T _ZN5Regal3Emu3Iff6TexEnvEjjjPKi
002da9f4 W _ZN5Regal3Emu3Iff6TexGenIPKdEEbjjT_
002dab98 W _ZN5Regal3Emu3Iff6TexGenIPKfEEbjjT_
002dad24 W _ZN5Regal3Emu3Iff6TexGenIPKiEEbjjT_
000e4650 T _ZN5Regal3Emu3Iff7CleanupERNS_12RegalContextE
000e601c T _ZN5Regal3Emu3Iff7PreDrawEPNS_12RegalContextE
000e3350 T _ZN5Regal3Emu3Iff7Program21UserShaderModeAttribsEPNS_12RegalContextE
000e2834 T _ZN5Regal3Emu3Iff7Program4InitEPNS_12RegalContextERKNS1_5State5StoreEjj
000e2f14 T _ZN5Regal3Emu3Iff7Program6ShaderEPNS_12RegalContextERNS_15DispatchTableGLEjRjPKc
000e2980 T _ZN5Regal3Emu3Iff7Program7AttribsEPNS_12RegalContextE
000e2ca8 T _ZN5Regal3Emu3Iff7Program8SamplersEPNS_12RegalContextERNS_15DispatchTableGLE
000e2da4 T _ZN5Regal3Emu3Iff7Program8UniformsEPNS_12RegalContextERNS_15DispatchTableGLE
000e625c T _ZN5Regal3Emu3Iff7ProvokeEPNS_12RegalContextE
000f6bc4 T _ZN5Regal3Emu3Iff7UniformEPNS_12RegalContextEjiiiiPKv
000f6bb0 T _ZN5Regal3Emu3Iff7UniformEPNS_12RegalContextEjiiiPKv
000edd1c T _ZN5Regal3Emu3Iff8ViewportEiiii
000ecc84 T _ZN5Regal3Emu3Iff9AlphaFuncEjf
000f8f50 W _ZN5Regal3Emu3Iff9AttributeILi4ELb0EiEEvPNS_12RegalContextEjPKT1_
000ecd8c T _ZN5Regal3Emu3Iff9ClipPlaneEjPKd
000e53c4 T _ZN5Regal3Emu3Iff9GetAttribEPNS_12RegalContextEjjPd
000e53dc T _ZN5Regal3Emu3Iff9GetAttribEPNS_12RegalContextEjjPf
000e53f4 T _ZN5Regal3Emu3Iff9GetAttribEPNS_12RegalContextEjjPi
002ce204 W _ZN5Regal3Emu3Iff9GetTexEnvIfEEbjjPT_
002ce50c W _ZN5Regal3Emu3Iff9GetTexEnvIiEEbjjPT_
000e540c T _ZN5Regal3Emu3Iff9IsEnabledEPNS_12RegalContextEjRh
000ecfb0 T _ZN5Regal3Emu3Iff9MatrixPopEj
000edb64 T _ZN5Regal3Emu3Iff9PopMatrixEv
000edd78 T _ZN5Regal3Emu3Iff9RasterPosEPNS_12RegalContextEddd
000ee12c T _ZN5Regal3Emu3Iff9WindowPosEPNS_12RegalContextEddd
000e3728 T _ZN5Regal3Emu3IffC1Ev
000e3728 T _ZN5Regal3Emu3IffC2Ev
001a8f40 W _ZN5Regal3Emu3IffD2Ev
002d74d8 W _ZN5Regal3Emu3Ppa10PushAttribEPNS_12RegalContextEj
002cfc8c W _ZN5Regal3Emu3Ppa11glIsEnabledEPNS_12RegalContextERhj
002ce8fc W _ZN5Regal3Emu3Ppa17glGetTexParameterIfEEbPNS_12RegalContextEjjPT_
002cf3f0 W _ZN5Regal3Emu3Ppa17glGetTexParameterIiEEbPNS_12RegalContextEjjPT_
002c8430 W _ZN5Regal3Emu3Ppa6glGetvIdEEbPNS_12RegalContextEjPT_
002ca768 W _ZN5Regal3Emu3Ppa6glGetvIfEEbPNS_12RegalContextEjPT_
002c6598 W _ZN5Regal3Emu3Ppa6glGetvIhEEbPNS_12RegalContextEjPT_
002cc554 W _ZN5Regal3Emu3Ppa6glGetvIiEEbPNS_12RegalContextEjPT_
002e54cc W _ZN5Regal3Emu3Ppa8glGeti_vIdEEbPNS_12RegalContextEjjPT_
002e5e3c W _ZN5Regal3Emu3Ppa8glGeti_vIfEEbPNS_12RegalContextEjjPT_
002dfb98 W _ZN5Regal3Emu3Ppa8glGeti_vIhEEbPNS_12RegalContextEjjPT_
002e4748 W _ZN5Regal3Emu3Ppa8glGeti_vIiEEbPNS_12RegalContextEjjPT_
002d176c W _ZN5Regal3Emu3Ppa9PopAttribEPNS_12RegalContextE
002c4960 W _ZN5Regal3Emu3Ppa9SetEnableEPNS_12RegalContextEjh
001a6f6c W _ZN5Regal3Emu3PpaC2Ev
001a8d2c W _ZN5Regal3Emu3PpaD2Ev
002dc49c W _ZN5Regal3Emu3Vao13AttribPointerERNS_12RegalContextEjijhiPKv
001a7eb0 W _ZN5Regal3Emu3Vao15BindVertexArrayERNS_12RegalContextEj
002e4e24 W _ZN5Regal3Emu3Vao15GenVertexArraysEiPj
002dd894 W _ZN5Regal3Emu3Vao17InterleavedArraysERNS_12RegalContextEjiPKv
002e4c04 W _ZN5Regal3Emu3Vao18DeleteVertexArraysERNS_12RegalContextEiPKj
002dc310 W _ZN5Regal3Emu3Vao24ClientStateToAttribIndexEj
001a6b28 W _ZN5Regal3Emu3Vao4InitERNS_12RegalContextE
002df668 W _ZN5Regal3Emu3Vao9GetAttribIdEEvijPT_
002df7bc W _ZN5Regal3Emu3Vao9GetAttribIfEEvijPT_
002df90c W _ZN5Regal3Emu3Vao9GetAttribIiEEvijPT_
0048f8c4 T _ZN5Regal3Emu4Filt10ReadBufferERKNS_12RegalContextEj
0048fafc T _ZN5Regal3Emu4Filt10RenderModeERKNS_12RegalContextEj
004905a0 T _ZN5Regal3Emu4Filt10TexImage2DERKNS_12RegalContextEjiiiiijjPKv
0048ee18 T _ZN5Regal3Emu4Filt11BindTextureERKNS_12RegalContextEjj
0048ef3c T _ZN5Regal3Emu4Filt11DrawBuffersERKNS_12RegalContextEiPKj
0048fc0c T _ZN5Regal3Emu4Filt11PixelStoreiERKNS_12RegalContextEji
0048ffe8 T _ZN5Regal3Emu4Filt11PolygonModeERKNS_12RegalContextEjj
0048f078 T _ZN5Regal3Emu4Filt12TexParameterERKNS_12RegalContextEjj
0048f720 T _ZN5Regal3Emu4Filt14GenerateMipmapERKNS_12RegalContextEj
0048ef30 T _ZN5Regal3Emu4Filt15BindFramebufferERKNS_12RegalContextEjj
0048f2e8 T _ZN5Regal3Emu4Filt17GetTexParameterivERKNS_12RegalContextEjjPi
0048f1c8 T _ZN5Regal3Emu4Filt18FilterTexParameterERKNS_12RegalContextEjjfRf
0048f3d0 T _ZN5Regal3Emu4Filt20FramebufferTexture2DERKNS_12RegalContextEjjjji
0048f620 T _ZN5Regal3Emu4Filt30FramebufferAttachmentSupportedERKNS_12RegalContextEj
004900d4 T _ZN5Regal3Emu4Filt9FilterGetERKNS_12RegalContextEjRi
002cf9c0 W _ZN5Regal3Emu4Hint6glHintERNS_12RegalContextEjj
002deea8 W _ZN5Regal3Emu4Ppca18glPushClientAttribERNS_12RegalContextEj
002e67a0 W _ZN5Regal3Emu4Ppca24glClientAttribDefaultEXTERNS_12RegalContextEj
001a8838 W _ZN5Regal3Emu4Ppca5ResetERNS_12RegalContextE
002da140 W _ZN5Regal3Emu4Rect6glRectIdEEvPNS_12RegalContextET_S5_S5_S5_
002da298 W _ZN5Regal3Emu4Rect6glRectIfEEvPNS_12RegalContextET_S5_S5_S5_
002da3a8 W _ZN5Regal3Emu4Rect6glRectIiEEvPNS_12RegalContextET_S5_S5_S5_
002da4ac W _ZN5Regal3Emu4Rect6glRectIsEEvPNS_12RegalContextET_S5_S5_S5_
00199f58 T _ZN5Regal3Emu4TexC11GenTexture_Ej
00199e80 T _ZN5Regal3Emu4TexC11GetTexture_Ej
0019a43c T _ZN5Regal3Emu4TexC14DeleteTexture_Ej
00199d78 T _ZN5Regal3Emu4TexC16GetBoundTexture_Ejj
0019a0b8 T _ZN5Regal3Emu4TexC16GetFormatAndTypeEjiPjS2_
0019a36c T _ZN5Regal3Emu4TexC16ShadowPixelStoreEji
0019a1fc T _ZN5Regal3Emu4TexC16ShadowTexImage2DEjijj
0019a4d8 T _ZN5Regal3Emu4TexC17ShadowBindTextureEjj
0019a37c T _ZN5Regal3Emu4TexC17ShadowGenTexturesEiPj
0019a4ac T _ZN5Regal3Emu4TexC19ShadowActiveTextureEj
00199e00 T _ZN5Regal3Emu4TexC20GetBoundTextureUnit_Ejj
0019a3b0 T _ZN5Regal3Emu4TexC20ShadowDeleteTexturesEiPKj
0019a5e4 T _ZN5Regal3Emu4TexC20ShadowGenerateMipmapEj
00199d34 T _ZN5Regal3Emu4TexC4InitERNS_12RegalContextE
00199c0c T _ZN5Regal3Emu4TexC6Reset_Ev
00199bb4 T _ZN5Regal3Emu4TexCC1Ev
00199bb4 T _ZN5Regal3Emu4TexCC2Ev
00491cbc T _ZN5Regal3Emu4Xfer10PixelStoreEPNS_12RegalContextEji
00491cfc T _ZN5Regal3Emu4Xfer10TexImage2DEPNS_12RegalContextEjiiiiijjPKv
00492630 T _ZN5Regal3Emu4Xfer13TexSubImage2DEPNS_12RegalContextEjiiiiijjPKv
00492740 T _ZN5Regal3Emu4Xfer20CompressedTexImage2DEPNS_12RegalContextEjiiiiiiPKv
00492ce0 T _ZN5Regal3Emu4Xfer23CompressedTexSubImage2DEPNS_12RegalContextEjiiiiijiPKv
000fa634 T _ZN5Regal3Emu5Quads10glCullFaceEj
000fa5b8 T _ZN5Regal3Emu5Quads11glFrontFaceEj
000fa5a8 T _ZN5Regal3Emu5Quads12glBindBufferEjj
000f9b10 T _ZN5Regal3Emu5Quads12glDrawArraysEPNS_12RegalContextEjii
000fa60c T _ZN5Regal3Emu5Quads12glShadeModelEj
000fa5c8 T _ZN5Regal3Emu5Quads13glPolygonModeEjj
000fa620 T _ZN5Regal3Emu5Quads17glProvokingVertexEj
000f9a84 T _ZN5Regal3Emu5Quads4InitERNS_12RegalContextE
000f9b0c T _ZN5Regal3Emu5Quads7CleanupERNS_12RegalContextE
000fa658 T _ZN5Regal3Emu5Quads8glEnableEj
000fa670 T _ZN5Regal3Emu5Quads9glDisableEj
002e4018 W _ZN5Regal3Emu6TexSto14TextureStorageEPNS_12RegalContextEjiji
002e41c8 W _ZN5Regal3Emu6TexSto14TextureStorageEPNS_12RegalContextEjijii
002e4540 W _ZN5Regal3Emu6TexSto14TextureStorageEPNS_12RegalContextEjijiii
002ceedc W _ZN5Regal3Emu6TexSto17BindingFromTargetEj
000efdc0 W _ZN5Regal3EmueqERKNS0_3Iff5State5StoreES5_
001717b8 W _ZN5Regal4Init10getContextEPv
00171c5c W _ZN5Regal4Init10setContextEPNS_12RegalContextE
00171954 T _ZN5Regal4Init11makeCurrentEPv
00171568 T _ZN5Regal4Init12shareContextEPvS1_
001712e8 T _ZN5Regal4Init13isInitializedEv
00171e78 T _ZN5Regal4Init14destroyContextEPv
0017b8ac T _ZN5Regal4Init14getNumContextsEv
00171340 T _ZN5Regal4Init16checkForGLErrorsEPNS_12RegalContextE
00171424 T _ZN5Regal4Init16setErrorCallbackEPFvjE
0017b90c T _ZN5Regal4Init17getContextByIndexEj
001720b4 T _ZN5Regal4Init21getContextListingHTMLERNSt6__ndk112basic_stringIcNS1_11char_traitsIcEENS1_9allocatorIcEEEE
00171300 T _ZN5Regal4Init4initEv
001708d8 T _ZN5Regal4Init6atExitEv
00171498 T _ZN5Regal4Init9configureEPKc
00170628 T _ZN5Regal4InitC1Ev
00170628 T _ZN5Regal4InitC2Ev
00170918 T _ZN5Regal4InitD1Ev
00170918 T _ZN5Regal4InitD2Ev
0048c45c T _ZN5Regal4Json6Parser11parseStringEPKc
0048afe4 T _ZN5Regal4Json6Parser5onPopEv
00489384 T _ZN5Regal4Json6Parser6onPushERKNSt6__ndk112basic_stringIcNS2_11char_traitsIcEENS2_9allocatorIcEEEE
0048b0d8 T _ZN5Regal4Json6Parser7onValueEb
0048b894 T _ZN5Regal4Json6Parser7onValueEl
0048babc T _ZN5Regal4Json6Parser7onValueERKNSt6__ndk112basic_stringIcNS2_11char_traitsIcEENS2_9allocatorIcEEEE
0048b014 T _ZN5Regal4Json6Parser7onValueEv
0048bff4 T _ZN5Regal4Json6Parser9parseFileERKNSt6__ndk112basic_stringIcNS2_11char_traitsIcEENS2_9allocatorIcEEEE
00489370 T _ZN5Regal4Json6ParserC1Ev
00489370 T _ZN5Regal4Json6ParserC2Ev
00489380 T _ZN5Regal4Json6ParserD1Ev
00489380 T _ZN5Regal4Json6ParserD2Ev
0019b004 T _ZN5Regal5Cache11bindTextureEPFvjjEPFvjijPiEPFvjijjPvEjj
0019afdc T _ZN5Regal5Cache12shaderSourceEPFvjiPKPKcPKiEjiS4_S6_
001938e0 T _ZN5Regal5Frame7captureERNS_12RegalContextEb
006706f0 B _ZN5Regal5sc2rcE
002c8080 W _ZN5Regal5State11ColorBuffer12getUndefinedERNS_15DispatchTableGLE
002d5064 W _ZN5Regal5State11ColorBuffer4swapERS1_
002d4a84 W _ZN5Regal5State4Eval4swapERS1_
002d2e2c W _ZN5Regal5State6Enable4swapERS1_
002d4418 W _ZN5Regal5State7Scissor4swapERS1_
002d07f0 W _ZN5Regal5State8Lighting11glMaterialvIfEEvjjPKT_
002d0988 W _ZN5Regal5State8Lighting11glMaterialvIiEEvjjPKT_
002d6af0 W _ZN5Regal5State8Lighting4swapERS1_
001a8930 W _ZN5Regal5State8LightingC2Ev
002d463c W _ZN5Regal5State8Viewport4swapERS1_
002d0dfc W _ZN5Regal5State9PixelMode15glPixelTransferIfEEvjT_
002d12d0 W _ZN5Regal5State9PixelMode15glPixelTransferIiEEvjT_
002d5da8 W _ZN5Regal5State9PixelMode4swapERS1_
006706fc B _ZN5Regal5th2rcE
002209f4 T _ZN5Regal5Token14GLenumToStringEj
0024ce6c T _ZN5Regal5Token14GLmodeToStringEj
00251ed8 T _ZN5Regal5Token15EGLenumToStringEi
0024e698 T _ZN5Regal5Token15GLclearToStringEj
00251e04 T _ZN5Regal5Token15GLerrorToStringEj
002209a8 T _ZN5Regal5Token17GLbooleanToStringEh
0024cd60 T _ZN5Regal5Token17GLtextureToStringEj
0024fdd0 T _ZN5Regal5Token18GLwaitSyncToStringEj
0024e9bc T _ZN5Regal5Token19GLfenceSyncToStringEj
00251dd8 T _ZN5Regal5Token19GLpathCoordToStringEj
0024d974 T _ZN5Regal5Token19GLpathCoordToStringEjjPKv
0024f224 T _ZN5Regal5Token20GLpushAttribToStringEj
0024d32c T _ZN5Regal5Token21GLpathCommandToStringEh
0024d200 T _ZN5Regal5Token21GLpathCommandToStringEjPKh
0024e148 T _ZN5Regal5Token22GLbufferAccessToStringEj
002507a0 T _ZN5Regal5Token22GLpathGlyphsNVToStringEj
002515c0 T _ZN5Regal5Token22GLTexParameterToStringEjf
00251704 T _ZN5Regal5Token22GLTexParameterToStringEji
00251840 T _ZN5Regal5Token22GLTexParameterToStringEjPKf
00251a38 T _ZN5Regal5Token22GLTexParameterToStringEjPKi
00251c08 T _ZN5Regal5Token22GLTexParameterToStringEjPKj
002209d0 T _ZN5Regal5Token22internalFormatToStringEi
0024e3f0 T _ZN5Regal5Token23GLbufferStorageToStringEj
0024ffc0 T _ZN5Regal5Token23GLimportSyncEXTToStringEj
0024ed5c T _ZN5Regal5Token23GLmemoryBarrierToStringEj
0024e874 T _ZN5Regal5Token24GLclientWaitSyncToStringEj
0024eab4 T _ZN5Regal5Token24GLmapBufferRangeToStringEj
0024dbe4 T _ZN5Regal5Token25GLblitFramebufferToStringEj
00250c3c T _ZN5Regal5Token25GLstartTilingQCOMToStringEj
002500b8 T _ZN5Regal5Token26GLgetPathMetricsNVToStringEj
0024f914 T _ZN5Regal5Token26GLpushClientAttribToStringEj
0024fae4 T _ZN5Regal5Token26GLuseProgramStagesToStringEj
00250ab0 T _ZN5Regal5Token27GLmapTexture2DINTELToStringEj
00250968 T _ZN5Regal5Token29GLtexStorageSparseAMDToStringEj
0024fec8 T _ZN5Regal5Token34GLcreateSyncFromCLeventARBToStringEj
0067072c B _ZN5Regal6Config10configFileE
00670767 B _ZN5Regal6Config10enableCodeE
00670764 B _ZN5Regal6Config10enableHttpE
00670778 B _ZN5Regal6Config10forceEmuSoE
0067077c B _ZN5Regal6Config10frameLimitE
006707ad B _ZN5Regal6Config11cacheShaderE
00670765 B _ZN5Regal6Config11enableDebugE
0066905a D _ZN5Regal6Config11enableEmuSoE
00670766 B _ZN5Regal6Config11enableErrorE
00670763 B _ZN5Regal6Config11enableTraceE
0067076f B _ZN5Regal6Config11forceEmuBinE
00670772 B _ZN5Regal6Config11forceEmuDsaE
00670776 B _ZN5Regal6Config11forceEmuIffE
0067076e B _ZN5Regal6Config11forceEmuObjE
0067076c B _ZN5Regal6Config11forceEmuPpaE
00670779 B _ZN5Regal6Config11forceEmuVaoE
006707b0 B _ZN5Regal6Config12cacheTextureE
0066904c D _ZN5Regal6Config12enableDriverE
00669052 D _ZN5Regal6Config12enableEmuBinE
00669055 D _ZN5Regal6Config12enableEmuDsaE
00669058 D _ZN5Regal6Config12enableEmuIffE
00669051 D _ZN5Regal6Config12enableEmuObjE
0066904f D _ZN5Regal6Config12enableEmuPpaE
0066905b D _ZN5Regal6Config12enableEmuVaoE
0067076b B _ZN5Regal6Config12forceEmuHintE
00670773 B _ZN5Regal6Config12forceEmuPathE
0067076d B _ZN5Regal6Config12forceEmuPpcaE
00670774 B _ZN5Regal6Config12forceEmuRectE
0067077b B _ZN5Regal6Config12forceEmuTexCE
00670771 B _ZN5Regal6Config12forceEmuXferE
00670786 B _ZN5Regal6Config12frameCaptureE
0066904e D _ZN5Regal6Config13enableEmuHintE
00670769 B _ZN5Regal6Config13enableEmuPathE
00669050 D _ZN5Regal6Config13enableEmuPpcaE
00669056 D _ZN5Regal6Config13enableEmuRectE
0067076a B _ZN5Regal6Config13enableEmuTexCE
00669054 D _ZN5Regal6Config13enableEmuXferE
0066904d D _ZN5Regal6Config13enableMissingE
00670777 B _ZN5Regal6Config13forceEmuQuadsE
00670780 B _ZN5Regal6Config13frameMd5ColorE
00670782 B _ZN5Regal6Config13frameMd5DepthE
006707b4 B _ZN5Regal6Config14cacheDirectoryE
006707cc B _ZN5Regal6Config14codeHeaderFileE
006707c0 B _ZN5Regal6Config14codeSourceFileE
00669059 D _ZN5Regal6Config14enableEmuQuadsE
0067077a B _ZN5Regal6Config14forceEmuFilterE
00670762 B _ZN5Regal6Config14forceEmulationE
00670770 B _ZN5Regal6Config14forceEmuTexStoE
00670783 B _ZN5Regal6Config14frameSaveColorE
00670785 B _ZN5Regal6Config14frameSaveDepthE
006707ae B _ZN5Regal6Config15cacheShaderReadE
0066905c D _ZN5Regal6Config15enableEmuFilterE
0066904a D _ZN5Regal6Config15enableEmulationE
00669053 D _ZN5Regal6Config15enableEmuTexStoE
0067075c B _ZN5Regal6Config15forceES1ProfileE
0067075d B _ZN5Regal6Config15forceES2ProfileE
00670781 B _ZN5Regal6Config15frameMd5StencilE
006707af B _ZN5Regal6Config16cacheShaderWriteE
006707b1 B _ZN5Regal6Config16cacheTextureReadE
00670768 B _ZN5Regal6Config16enableStatisticsE
0067075e B _ZN5Regal6Config16forceCoreProfileE
00670784 B _ZN5Regal6Config16frameSaveStencilE
006707b2 B _ZN5Regal6Config17cacheTextureWriteE
0066905d D _ZN5Regal6Config17frameMd5ColorMaskE
00669060 D _ZN5Regal6Config17frameMd5DepthMaskE
00670775 B _ZN5Regal6Config18forceEmuBaseVertexE
00669057 D _ZN5Regal6Config19enableEmuBaseVertexE
00669064 D _ZN5Regal6Config19enableThreadLockingE
0066905e D _ZN5Regal6Config19frameMd5StencilMaskE
00670788 B _ZN5Regal6Config20frameSaveColorPrefixE
006707a0 B _ZN5Regal6Config20frameSaveDepthPrefixE
00670794 B _ZN5Regal6Config22frameSaveStencilPrefixE
0019b014 T _ZN5Regal6Config4InitEv
006707ac B _ZN5Regal6Config5cacheE
00670760 B _ZN5Regal6Config5sysGLE
00670738 B _ZN5Regal6Config6loadGLE
00669049 D _ZN5Regal6Config6sysEGLE
0067075f B _ZN5Regal6Config6sysES1E
00669048 D _ZN5Regal6Config6sysES2E
00670761 B _ZN5Regal6Config6sysGLXE
00670750 B _ZN5Regal6Config7loadEGLE
00670744 B _ZN5Regal6Config7loadES2E
0066904b D _ZN5Regal6Config9enableLogE
006707d8 B _ZN5Regal6Config9traceFileE
0019db30 T _ZN5Regal6Config9writeJSONERNS_4Json6OutputE
001989dc T _ZN5Regal6helper10getInfoLogERNSt6__ndk112basic_stringIcNS1_11char_traitsIcEENS1_9allocatorIcEEEEPFvjiPiPcEPFvjjS9_Ej
001988e4 T _ZN5Regal6helper19shaderSourceStringsEiPPKcPKi
0019833c T _ZN5Regal6helper4size10pixelImageEiiijjij
00198294 T _ZN5Regal6helper4size11lightModelvEj
001988ac T _ZN5Regal6helper4size11namedStringEiPKc
00198870 T _ZN5Regal6helper4size12drawElementsEjij
00198570 T _ZN5Regal6helper4size13texParametervEj
001988cc T _ZN5Regal6helper4size17namedStringParamsEj
001987e0 T _ZN5Regal6helper4size17samplerParametervEj
0019478c T _ZN5Regal6helper4size3getEj
00198218 T _ZN5Regal6helper4size4fogvEj
00198270 T _ZN5Regal6helper4size6lightvEj
00198690 T _ZN5Regal6helper4size7texEnvvEjj
001987bc T _ZN5Regal6helper4size7texGenvEj
001981f0 T _ZN5Regal6helper4size9callListsEij
001982e4 T _ZN5Regal6helper4size9materialvEj
003563f4 T _ZN5Regal6Loader4InitERNS_15DispatchTableGLE
003e52a4 T _ZN5Regal6Loader4InitERNS_19DispatchTableGlobalE
00594768 R _ZN5Regal6Lookup10egl_OffsetE
00655d78 D _ZN5Regal6Lookup7gl_NameE
00165354 W _ZN5Regal6Lookup7NameCmpEPKvS2_
0065894c D _ZN5Regal6Lookup8egl_NameE
00669068 D _ZN5Regal6Lookup8gl_ValueE
0066bc3c D _ZN5Regal6Lookup9egl_ValueE
00591b94 R _ZN5Regal6Lookup9gl_OffsetE
0066bd3c D _ZN5Regal6Plugin15lookup_gl_ValueE
0066e900 D _ZN5Regal6Plugin16lookup_egl_ValueE
0021e9b0 T _ZN5Regal6Shader12OptimizeGLSLEbjNSt6__ndk112basic_stringIcNS1_11char_traitsIcEENS1_9allocatorIcEEEERS7_NS_3Emu3Iff11CompareFuncE
0021feb0 W _ZN5Regal6Shader14add_alpha_test11visit_enterEP11ir_function
0021fad0 W _ZN5Regal6Shader14add_alpha_test11visit_leaveEP21ir_function_signature
0021fa38 W _ZN5Regal6Shader14add_alpha_test5visitEP11ir_variable
0021fa34 W _ZN5Regal6Shader14add_alpha_testD0Ev
0021ec90 T _ZN5Regal6Shader16regal_glsl_parseEPNS0_14regal_glsl_ctxENS0_22regal_glsl_shader_typeEPKc
002201d8 W _ZN5Regal6Shader16replace_builtins10add_globalENSt6__ndk112basic_stringIcNS2_11char_traitsIcEENS2_9allocatorIcEEEE
0021ff94 W _ZN5Regal6Shader16replace_builtins5visitEP23ir_dereference_variable
0021f250 W _ZN5Regal6Shader16replace_builtinsC2EPNS0_17regal_glsl_shaderE
0021ff50 W _ZN5Regal6Shader16replace_builtinsD0Ev
0021f9e4 W _ZN5Regal6Shader16replace_builtinsD2Ev
0021f174 T _ZN5Regal6Shader18regal_glsl_cleanupEPNS0_14regal_glsl_ctxE
0021fa2c T _ZN5Regal6Shader18regal_glsl_get_logEPNS0_17regal_glsl_shaderE
0021efb0 T _ZN5Regal6Shader19regal_glsl_optimizeEPNS0_17regal_glsl_shaderE
0021efbc T _ZN5Regal6Shader21regal_glsl_gen_outputEPNS0_17regal_glsl_shaderE
0021f10c T _ZN5Regal6Shader21regal_glsl_get_outputEPNS0_17regal_glsl_shaderE
0021f104 T _ZN5Regal6Shader21regal_glsl_get_statusEPNS0_17regal_glsl_shaderE
0021ebc4 T _ZN5Regal6Shader21regal_glsl_initializeE6gl_api
0021f114 T _ZN5Regal6Shader24regal_glsl_shader_deleteEPNS0_17regal_glsl_shaderE
0021eef8 T _ZN5Regal6Shader25regal_glsl_add_alpha_testEPNS0_17regal_glsl_shaderENS_3Emu3Iff11CompareFuncE
0021fa24 T _ZN5Regal6Shader25regal_glsl_get_raw_outputEPNS0_17regal_glsl_shaderE
0021f1a8 T _ZN5Regal6Shader27regal_glsl_replace_builtinsEPNS0_17regal_glsl_shaderE
00669020 D _ZN5Regal6Thread11ThreadLocal12_instanceKeyE
00670714 B _ZN5Regal6Thread15threadLocalInitE
00191868 T _ZN5Regal7EmuInfo4initERKNS_11ContextInfoE
001917ac T _ZN5Regal7EmuInfoC1Ev
001917ac T _ZN5Regal7EmuInfoC2Ev
001917f8 T _ZN5Regal7EmuInfoD1Ev
001917f8 T _ZN5Regal7EmuInfoD2Ev
006706b8 B _ZN5Regal7Logging10bufferSizeE
00669007 D _ZN5Regal7Logging10enableHttpE
00669006 D _ZN5Regal7Logging10enableInfoE
0016894c W _ZN5Regal7Logging10jsonObjectEPKcS2_RKNSt6__ndk112basic_stringIcNS3_11char_traitsIcEENS3_9allocatorIcEEEE
006706ac B _ZN5Regal7Logging10jsonOutputE
00669014 D _ZN5Regal7Logging11bufferLimitE
006706b0 B _ZN5Regal7Logging11bufferMutexE
00167cd0 T _ZN5Regal7Logging11createLocksEv
00669004 D _ZN5Regal7Logging11enableErrorE
006706bc B _ZN5Regal7Logging11initializedE
0067068c B _ZN5Regal7Logging11logFilenameE
006706c0 B _ZN5Regal7Logging11uniqueMutexE
00670685 B _ZN5Regal7Logging12enableDriverE
006706a0 B _ZN5Regal7Logging12jsonFilenameE
006706c4 B _ZN5Regal7Logging12uniqueErrorsE
00669005 D _ZN5Regal7Logging13enableWarningE
00670686 B _ZN5Regal7Logging14enableInternalE
006706d0 B _ZN5Regal7Logging14uniqueWarningsE
00670688 B _ZN5Regal7Logging15frameStatisticsE
00167bbc T _ZN5Regal7Logging18getLogMessagesHTMLERNSt6__ndk112basic_stringIcNS1_11char_traitsIcEENS1_9allocatorIcEEEE
00669012 D _ZN5Regal7Logging3logE
001653a4 T _ZN5Regal7Logging4InitEv
0067069c B _ZN5Regal7Logging4jsonE
00669018 D _ZN5Regal7Logging4onceE
006706e0 B _ZN5Regal7Logging5timerE
00169d40 W _ZN5Regal7Logging6appendERNSt6__ndk112basic_stringIcNS1_11char_traitsIcEENS1_9allocatorIcEEEE
006706b4 B _ZN5Regal7Logging6bufferE
0016b984 W _ZN5Regal7Logging6indentEv
00166128 T _ZN5Regal7Logging6OutputENS0_4ModeEPKciS3_S3_S3_RKNSt6__ndk112basic_stringIcNS4_11char_traitsIcEENS4_9allocatorIcEEEE
00670689 B _ZN5Regal7Logging6threadE
00166974 T _ZN5Regal7Logging7CleanupEv
00167d5c W _ZN5Regal7Logging7messageEPKcS2_S2_RKNSt6__ndk112basic_stringIcNS3_11char_traitsIcEENS3_9allocatorIcEEEE
0067068a B _ZN5Regal7Logging7processE
00669011 D _ZN5Regal7Logging8callbackE
0066900c D _ZN5Regal7Logging8maxBytesE
00669008 D _ZN5Regal7Logging8maxLinesE
00669010 D _ZN5Regal7Logging8pointersE
00670684 B _ZN5Regal7Logging9enableAppE
00670687 B _ZN5Regal7Logging9frameTimeE
00670698 B _ZN5Regal7Logging9logOutputE
00166af4 T _ZN5Regal7Logging9writeJSONERNS_4Json6OutputE
003e7094 T _ZN5Regal7Missing4InitERNS_15DispatchTableGLE
004820a8 T _ZN5Regal7Missing4InitERNS_19DispatchTableGlobalE
0019042c T _ZN5Regal8fileOpenEPKcS1_
001907c0 T _ZN5Regal8fileReadEP7__sFILE
001906a0 T _ZN5Regal8makePathERKNSt6__ndk112basic_stringIcNS0_11char_traitsIcEENS0_9allocatorIcEEEES8_
0019064c T _ZN5Regal9fileCloseEPP7__sFILE
004e4a1c T _ZN5s_int5printEv
004e4c9c W _ZN5s_int6fvalueEv
004f9718 T _ZN6linker11get_storageEP18gl_uniform_storagejPKc
004f97d4 T _ZN6linker23set_uniform_initializerEPvP17gl_shader_programPKcPK9glsl_typeP11ir_constant
004f9770 T _ZN6linker24copy_constant_to_storageEP17gl_constant_valuePK11ir_constant14glsl_base_typej
004e4a68 T _ZN6s_list5printEv
004e44f0 T _ZN6s_listC1Ev
004e44f0 T _ZN6s_listC2Ev
004e134c T _ZN7ir_call15generate_inlineEP14ir_instruction
004cc7ac T _ZN7ir_call25constant_expression_valueEP10hash_table
004c96cc W _ZN7ir_call6acceptEP10ir_visitor
004ce1b0 T _ZN7ir_call6acceptEP23ir_hierarchical_visitor
004c96e4 W _ZN7ir_call7as_callEv
004c96c8 W _ZN7ir_callD0Ev
004c982c W _ZN7ir_loop6acceptEP10ir_visitor
004cda6c T _ZN7ir_loop6acceptEP23ir_hierarchical_visitor
004c9844 W _ZN7ir_loop7as_loopEv
004c6d30 T _ZN7ir_loopC1Ev
004c6d30 T _ZN7ir_loopC2Ev
004c9828 W _ZN7ir_loopD0Ev
000eebe0 W _ZN7Lookup310hashlittleEPKvjj
004e4a34 T _ZN7s_float5printEv
004e4cb4 W _ZN7s_float6fvalueEv
004a40a0 T _ZN8ast_node3hirEP9exec_listP22_mesa_glsl_parse_state
004c0940 T _ZN8ast_nodeC1Ev
004c0940 T _ZN8ast_nodeC2Ev
004c1bfc W _ZN8ast_nodeD0Ev
004aafb0 W _ZN8ast_nodeD2Ev
004e4a50 T _ZN8s_symbol5printEv
004e44c8 T _ZN8s_symbolC1EPKcj
004e44c8 T _ZN8s_symbolC2EPKcj
006713c8 B _ZN9glsl_type10_void_typeE
0065ccd8 D _ZN9glsl_type10bvec2_typeE
0065ccdc D _ZN9glsl_type10bvec3_typeE
0065cce0 D _ZN9glsl_type10bvec4_typeE
0065cccc D _ZN9glsl_type10error_typeE
0065ccf4 D _ZN9glsl_type10float_typeE
0065cce8 D _ZN9glsl_type10ivec2_typeE
0065ccec D _ZN9glsl_type10ivec3_typeE
0065ccf0 D _ZN9glsl_type10ivec4_typeE
0065cf7c D _ZN9glsl_type10uvec2_typeE
0065cf80 D _ZN9glsl_type10uvec3_typeE
0065cf84 D _ZN9glsl_type10uvec4_typeE
006713b0 B _ZN9glsl_type11_error_typeE
00671ae8 B _ZN9glsl_type11array_typesE
0065cf60 D _ZN9glsl_type11mat2x3_typeE
0065cf64 D _ZN9glsl_type11mat2x4_typeE
0065cf68 D _ZN9glsl_type11mat3x2_typeE
0065cf6c D _ZN9glsl_type11mat3x4_typeE
0065cf70 D _ZN9glsl_type11mat4x2_typeE
0065cf74 D _ZN9glsl_type11mat4x3_typeE
004c3420 T _ZN9glsl_type12get_instanceEjjj
00671aec B _ZN9glsl_type12record_typesE
006713e0 B _ZN9glsl_type15_sampler3D_typeE
00671af0 B _ZN9glsl_type15interface_typesE
004c3844 T _ZN9glsl_type15record_key_hashEPKv
00671668 B _ZN9glsl_type17builtin_110_typesE
006716b0 B _ZN9glsl_type17builtin_120_typesE
00671740 B _ZN9glsl_type17builtin_130_typesE
006718d8 B _ZN9glsl_type17builtin_140_typesE
00671410 B _ZN9glsl_type18builtin_core_typesE
004c2660 T _ZN9glsl_type18generate_110_typesEP17glsl_symbol_tablebb
004c2904 T _ZN9glsl_type18generate_120_typesEP17glsl_symbol_tablebb
004c25b0 T _ZN9glsl_type18generate_130_typesEP17glsl_symbol_tablebb
004c2acc T _ZN9glsl_type18generate_140_typesEP17glsl_symbol_table
004c2b50 T _ZN9glsl_type18generate_150_typesEP17glsl_symbol_table
004c35e4 T _ZN9glsl_type18get_array_instanceEPKS_j
004c3780 T _ZN9glsl_type18record_key_compareEPKvS1_
004c3900 T _ZN9glsl_type19get_record_instanceEPK17glsl_struct_fieldjPKc
004c2410 T _ZN9glsl_type20generate_100ES_typesEP17glsl_symbol_table
004c2568 T _ZN9glsl_type20generate_300ES_typesEP17glsl_symbol_table
004c1f70 T _ZN9glsl_type20init_ralloc_type_ctxEv
004c39fc T _ZN9glsl_type22get_interface_instanceEPK17glsl_struct_fieldj22glsl_interface_packingPKc
006713f8 B _ZN9glsl_type23_samplerCubeShadow_typeE
006715a8 B _ZN9glsl_type23builtin_structure_typesE
004c2cf0 T _ZN9glsl_type29generate_OES_texture_3D_typesEP17glsl_symbol_tableb
00671938 B _ZN9glsl_type31builtin_EXT_texture_array_typesE
004c2a74 T _ZN9glsl_type32generate_EXT_texture_array_typesEP17glsl_symbol_tableb
004c2d04 T _ZN9glsl_type34generate_EXT_shadow_samplers_typesEP17glsl_symbol_tableb
00671908 B _ZN9glsl_type35builtin_ARB_texture_rectangle_typesE
006719e0 B _ZN9glsl_type36builtin_OES_EGL_image_external_typesE
004c2cb8 T _ZN9glsl_type36generate_ARB_texture_rectangle_typesEP17glsl_symbol_tableb
00671a58 B _ZN9glsl_type37builtin_ARB_texture_multisample_typesE
004c2d1c T _ZN9glsl_type37generate_OES_EGL_image_external_typesEP17glsl_symbol_tableb
006715c0 B _ZN9glsl_type38builtin_110_deprecated_structure_typesE
004c2c40 T _ZN9glsl_type38generate_ARB_texture_multisample_typesEP17glsl_symbol_tableb
00671998 B _ZN9glsl_type39builtin_EXT_texture_buffer_object_typesE
006719f8 B _ZN9glsl_type40builtin_ARB_texture_cube_map_array_typesE
004c2d30 T _ZN9glsl_type41generate_ARB_texture_cube_map_array_typesEP17glsl_symbol_tableb
00671af4 B _ZN9glsl_type7mem_ctxE
0065cce4 D _ZN9glsl_type8int_typeE
0065ccd4 D _ZN9glsl_type9bool_typeE
0065cd04 D _ZN9glsl_type9mat2_typeE
0065cd08 D _ZN9glsl_type9mat3_typeE
0065cd0c D _ZN9glsl_type9mat4_typeE
0065cf78 D _ZN9glsl_type9uint_typeE
0065ccf8 D _ZN9glsl_type9vec2_typeE
0065ccfc D _ZN9glsl_type9vec3_typeE
0065cd00 D _ZN9glsl_type9vec4_typeE
0065ccd0 D _ZN9glsl_type9void_typeE
004c1f9c T _ZN9glsl_typeC1Ej14glsl_base_typejjPKc
004c2010 T _ZN9glsl_typeC1Ej16glsl_sampler_dimbbjPKc
004c2184 T _ZN9glsl_typeC1EPK17glsl_struct_fieldj22glsl_interface_packingPKc
004c2094 T _ZN9glsl_typeC1EPK17glsl_struct_fieldjPKc
004c336c T _ZN9glsl_typeC1EPKS_j
004c1f9c T _ZN9glsl_typeC2Ej14glsl_base_typejjPKc
004c2010 T _ZN9glsl_typeC2Ej16glsl_sampler_dimbbjPKc
004c2184 T _ZN9glsl_typeC2EPK17glsl_struct_fieldj22glsl_interface_packingPKc
004c2094 T _ZN9glsl_typeC2EPK17glsl_struct_fieldjPKc
004c336c T _ZN9glsl_typeC2EPKS_j
004d27ac T _ZN9ir_reader11read_returnEP12s_expression
004d2924 T _ZN9ir_reader11read_rvalueEP12s_expression
004d2c50 T _ZN9ir_reader12read_swizzleEP12s_expression
004d3320 T _ZN9ir_reader12read_textureEP12s_expression
004d38ac T _ZN9ir_reader12read_var_refEP12s_expression
004d0e34 T _ZN9ir_reader13ir_read_errorEP12s_expressionPKcz
004d2fd4 T _ZN9ir_reader13read_constantEP12s_expression
004d12d0 T _ZN9ir_reader13read_functionEP12s_expressionb
004d1e70 T _ZN9ir_reader15read_assignmentEP12s_expression
004d2d84 T _ZN9ir_reader15read_expressionEP12s_expression
004d1758 T _ZN9ir_reader16read_declarationEP12s_expression
004d2aa4 T _ZN9ir_reader16read_dereferenceEP12s_expression
004d1b64 T _ZN9ir_reader16read_instructionEP12s_expressionP7ir_loop
004d1424 T _ZN9ir_reader17read_function_sigEP11ir_functionP12s_expressionb
004d1084 T _ZN9ir_reader17read_instructionsEP9exec_listP12s_expressionP7ir_loop
004d0f50 T _ZN9ir_reader19scan_for_prototypesEP9exec_listP12s_expression
004d0cb0 T _ZN9ir_reader4readEP9exec_listPKcb
004d21d4 T _ZN9ir_reader7read_ifEP12s_expressionP7ir_loop
004d24a8 T _ZN9ir_reader9read_callEP12s_expression
004d237c T _ZN9ir_reader9read_loopEP12s_expression
004d1178 T _ZN9ir_reader9read_typeEP12s_expression
004d0c5c T _ZN9ir_readerC1EP22_mesa_glsl_parse_state
004d0c5c T _ZN9ir_readerC2EP22_mesa_glsl_parse_state
004c96ec W _ZN9ir_return6acceptEP10ir_visitor
004ce284 T _ZN9ir_return6acceptEP23ir_hierarchical_visitor
004c9704 W _ZN9ir_return9as_returnEv
004c96e8 W _ZN9ir_returnD0Ev
004c815c T _ZN9ir_rvalue11error_valueEPv
004c8350 T _ZN9ir_rvalue21as_rvalue_to_saturateEv
004c99a0 T _ZN9ir_rvalue25constant_expression_valueEP10hash_table
004c858c W _ZN9ir_rvalue25whole_variable_referencedEv
004c84fc W _ZN9ir_rvalue6acceptEP10ir_visitor
004cda3c T _ZN9ir_rvalue6acceptEP23ir_hierarchical_visitor
004c8548 W _ZN9ir_rvalue9as_rvalueEv
004c459c T _ZN9ir_rvalueC1E14glsl_precision
004c459c T _ZN9ir_rvalueC2E14glsl_precision
004c9744 W _ZN9ir_rvalueD0Ev
004e4adc T _ZN9s_pattern5matchEP12s_expression
004f9d9e W _Znaj
004f9da2 W _ZnajRKSt9nothrow_t
004f9e6e W _ZnajSt11align_val_t
004f9e72 W _ZnajSt11align_val_tRKSt9nothrow_t
004c880c T _ZNK10ir_discard5cloneEPvP10hash_table
004c7df0 T _ZNK10ir_swizzle19variable_referencedEv
004c8748 T _ZNK10ir_swizzle5cloneEPvP10hash_table
004c97ec W _ZNK10ir_swizzle9is_lvalueEv
004c8ee0 T _ZNK10ir_texture5cloneEPvP10hash_table
004c6b50 T _ZNK11ir_constant15is_negative_oneEv
004c5c94 T _ZNK11ir_constant17get_array_elementEj
004c5a14 T _ZNK11ir_constant17get_int_componentEj
004c5b04 T _ZNK11ir_constant18get_bool_componentEj
004c59b8 T _ZNK11ir_constant18get_uint_componentEj
004c5a70 T _ZNK11ir_constant19get_float_componentEj
004c93a8 T _ZNK11ir_constant5cloneEPvP10hash_table
004c6a4c T _ZNK11ir_constant6is_oneEv
004c694c T _ZNK11ir_constant7is_zeroEv
004c6c3c T _ZNK11ir_constant8is_basisEv
004c67d8 T _ZNK11ir_constant9has_valueEPKS_
004c90f4 T _ZNK11ir_function5cloneEPvP10hash_table
004c7ec8 T _ZNK11ir_variable20interpolation_stringEv
004c859c T _ZNK11ir_variable5cloneEPvP10hash_table
004c0edc T _ZNK12ast_function5printEv
004c8874 T _ZNK12ir_loop_jump5cloneEPvP10hash_table
004e4cac W _ZNK12s_expression6is_intEv
004e4c7c W _ZNK12s_expression7is_listEv
004e4cc4 W _ZNK12s_expression9is_numberEv
004e4c84 W _ZNK12s_expression9is_symbolEv
004c9044 T _ZNK13ir_assignment5cloneEPvP10hash_table
004c8cdc T _ZNK13ir_expression5cloneEPvP10hash_table
004c150c T _ZNK14ast_case_label5printEv
004c0a48 T _ZNK14ast_expression5printEv
004c755c T _ZNK14ir_dereference9is_lvalueEv
004eabe8 T _ZNK14ir_instruction5printEv
004ef314 T _ZNK14tfeedback_decl15get_num_outputsEv
004ef374 T _ZNK14tfeedback_decl5storeEP10gl_contextP17gl_shader_programP26gl_transform_feedback_infojj
004c1078 T _ZNK15ast_declaration5printEv
004c1490 T _ZNK15ast_switch_body5printEv
004efc78 T _ZNK15varying_matches15store_locationsEjj
004c162c T _ZNK18ast_case_statement5printEv
004e6ba4 T _ZNK18ast_expression_bin5printEv
004c1264 T _ZNK18ast_jump_statement5printEv
004ab050 T _ZNK18ast_type_qualifier17has_interpolationEv
004ab060 T _ZNK18ast_type_qualifier20interpolation_stringEv
004aafb8 T _ZNK18ast_type_specifier5printEv
004a6b2c T _ZNK18ast_type_specifier9glsl_typeEPPKcP22_mesa_glsl_parse_state
004c15a0 T _ZNK19ast_case_label_list5printEv
004c1154 T _ZNK19ast_declarator_list5printEv
004c06f0 T _ZNK20_mesa_glsl_extension21compatible_with_stateEPK22_mesa_glsl_parse_state
004c0770 T _ZNK20_mesa_glsl_extension9set_flagsEP22_mesa_glsl_parse_state12ext_behavior
004c18e4 T _ZNK20ast_struct_specifier5printEv
004c140c T _ZNK20ast_switch_statement5printEv
004cc360 T _ZNK20ir_dereference_array19constant_referencedEP10hash_tableRP11ir_constantRi
004c98b8 W _ZNK20ir_dereference_array19variable_referencedEv
004c8e24 T _ZNK20ir_dereference_array5cloneEPvP10hash_table
004cc6c0 T _ZNK21ir_dereference_record19constant_referencedEP10hash_tableRP11ir_constantRi
004c98e8 W _ZNK21ir_dereference_record19variable_referencedEv
004c8e90 T _ZNK21ir_dereference_record5cloneEPvP10hash_table
004c92e8 T _ZNK21ir_function_signature15clone_prototypeEPvP10hash_table
004c91ac T _ZNK21ir_function_signature5cloneEPvP10hash_table
004c9550 T _ZNK21ir_typedecl_statement5cloneEPvP10hash_table
004c0970 T _ZNK22ast_compound_statement5printEv
004c9504 T _ZNK22ir_precision_statement5cloneEPvP10hash_table
004c16d4 T _ZNK23ast_case_statement_list5printEv
004c1048 T _ZNK23ast_function_definition5printEv
004c1758 T _ZNK23ast_iteration_statement5printEv
004c134c T _ZNK23ast_selection_statement5printEv
004cc29c T _ZNK23ir_dereference_variable19constant_referencedEP10hash_tableRP11ir_constantRi
004c9888 W _ZNK23ir_dereference_variable19variable_referencedEv
004c8dcc T _ZNK23ir_dereference_variable5cloneEPvP10hash_table
004d3994 T _ZNK23ir_struct_usage_visitor16has_struct_entryEPK9glsl_type
004c0e74 T _ZNK24ast_expression_statement5printEv
004ab040 T _ZNK24ast_fully_specified_type14has_qualifiersEv
004c0f98 T _ZNK24ast_fully_specified_type5printEv
004c0fc0 T _ZNK24ast_parameter_declarator5printEv
001bb1b8 W _ZNK5boost5print11string_listINSt6__ndk112basic_stringIcNS2_11char_traitsIcEENS2_9allocatorIcEEEEE4joinEPKc
004c88c0 T _ZNK5ir_if5cloneEPvP10hash_table
00488b5c W _ZNK5Regal10Conversion8RegistryILj6406ELj5121ENS0_5PixelIhLj1ELj0ELj0ELj0ELj255EEEE6Pack32EPKjPvj
00488b3c W _ZNK5Regal10Conversion8RegistryILj6406ELj5121ENS0_5PixelIhLj1ELj0ELj0ELj0ELj255EEEE8Unpack32EPKvPjj
00488ea4 W _ZNK5Regal10Conversion8RegistryILj6407ELj33635ENS0_5PixelItLj2ELj63488ELj2016ELj31ELj0EEEE6Pack32EPKjPvj
00488dfc W _ZNK5Regal10Conversion8RegistryILj6407ELj33635ENS0_5PixelItLj2ELj63488ELj2016ELj31ELj0EEEE8Unpack32EPKvPjj
0048926c W _ZNK5Regal10Conversion8RegistryILj6407ELj5121ENS0_8PixelAnyINS0_8uint24_tELj3ELj255ELj65280ELj16711680ELj0EEEE6Pack32EPKjPvj
00489234 W _ZNK5Regal10Conversion8RegistryILj6407ELj5121ENS0_8PixelAnyINS0_8uint24_tELj3ELj255ELj65280ELj16711680ELj0EEEE8Unpack32EPKvPjj
00488f54 W _ZNK5Regal10Conversion8RegistryILj6408ELj32819ENS0_5PixelItLj2ELj61440ELj3840ELj240ELj15EEEE6Pack32EPKjPvj
00488f44 W _ZNK5Regal10Conversion8RegistryILj6408ELj32819ENS0_5PixelItLj2ELj61440ELj3840ELj240ELj15EEEE8Unpack32EPKvPjj
004890b8 W _ZNK5Regal10Conversion8RegistryILj6408ELj32820ENS0_5PixelItLj2ELj63488ELj1984ELj62ELj1EEEE6Pack32EPKjPvj
004890a8 W _ZNK5Regal10Conversion8RegistryILj6408ELj32820ENS0_5PixelItLj2ELj63488ELj1984ELj62ELj1EEEE8Unpack32EPKvPjj
00488c90 W _ZNK5Regal10Conversion8RegistryILj6408ELj32848ENS0_5PixelItLj2ELj31ELj992ELj31744ELj0EEEE6Pack32EPKjPvj
00488bec W _ZNK5Regal10Conversion8RegistryILj6408ELj32848ENS0_5PixelItLj2ELj31ELj992ELj31744ELj0EEEE8Unpack32EPKvPjj
004892f8 W _ZNK5Regal10Conversion8RegistryILj6408ELj5121ENS0_5PixelIjLj4ELj255ELj65280ELj16711680ELj4278190080EEEE6Pack32EPKjPvj
004892b8 W _ZNK5Regal10Conversion8RegistryILj6408ELj5121ENS0_5PixelIjLj4ELj255ELj65280ELj16711680ELj4278190080EEEE8Unpack32EPKvPjj
00488bb4 W _ZNK5Regal10Conversion8RegistryILj6409ELj5121ENS0_5PixelIhLj1ELj255ELj0ELj0ELj0EEEE6Pack32EPKjPvj
00488b98 W _ZNK5Regal10Conversion8RegistryILj6409ELj5121ENS0_5PixelIhLj1ELj255ELj0ELj0ELj0EEEE8Unpack32EPKvPjj
00488d8c W _ZNK5Regal10Conversion8RegistryILj6410ELj5121ENS0_5PixelItLj2ELj255ELj0ELj0ELj65280EEEE6Pack32EPKjPvj
00488d38 W _ZNK5Regal10Conversion8RegistryILj6410ELj5121ENS0_5PixelItLj2ELj255ELj0ELj0ELj65280EEEE8Unpack32EPKvPjj
002e707c W _ZNK5Regal11ClientState10PixelStore3setERNS_15DispatchTableGLE
002e6dcc W _ZNK5Regal11ClientState11VertexArray3setERNS_15DispatchTableGLEb
002e7298 W _ZNK5Regal11ClientState16NamedVertexArray3setERNS_15DispatchTableGLENS0_7_vaNameEb
002e7480 W _ZNK5Regal11ClientState18GenericVertexArray3setERNS_15DispatchTableGLEj
001bb6b4 T _ZNK5Regal11ContextInfo12getExtensionEPKc
001a7e84 T _ZNK5Regal12RegalContext16groupInitializedEv
000e1efc W _ZNK5Regal2r37Matrix4IfE7InverseEv
00199b60 T _ZNK5Regal3Emu16TextureUnitState10GetBindingEj
000e27f0 T _ZNK5Regal3Emu3Iff5State16GetTextureEnableEj
000e5c88 T _ZNK5Regal3Emu3Iff9AttrIndexENS_24RegalFixedFunctionAttribEi
00172f50 W _ZNK5Regal5State11AccumBuffer8toStringEPKc
002d57a8 W _ZNK5Regal5State11ColorBuffer3setERNS_15DispatchTableGLE
001730cc W _ZNK5Regal5State11ColorBuffer8toStringEPKc
002d4960 W _ZNK5Regal5State11Multisample3setERNS_12RegalContextE
00178120 W _ZNK5Regal5State11Multisample8toStringEPKc
0018b360 W _ZNK5Regal5State11StencilFace8toStringEjPKc
00181dd4 W _ZNK5Regal5State12LightingFace8toStringEjPKc
002d7350 W _ZNK5Regal5State13LightingLight3setERNS_15DispatchTableGLEj
00182258 W _ZNK5Regal5State13LightingLight8toStringERN5boost5print11string_listINSt6__ndk112basic_stringIcNS5_11char_traitsIcEENS5_9allocatorIcEEEEEEjPKc
0017a9bc W _ZNK5Regal5State14PolygonStipple8toStringEPKc
002d4d90 W _ZNK5Regal5State3Fog3setERNS_15DispatchTableGLE
00176d5c W _ZNK5Regal5State3Fog8toStringEPKc
002d4c48 W _ZNK5Regal5State4Eval3setERNS_15DispatchTableGLE
00176944 W _ZNK5Regal5State4Eval8toStringEPKc
00177234 W _ZNK5Regal5State4Hint8toStringEPKc
00177ce8 W _ZNK5Regal5State4Line8toStringEPKc
00177fcc W _ZNK5Regal5State4List8toStringEPKc
00173cf0 W _ZNK5Regal5State5Depth8toStringEPKc
002d4ebc W _ZNK5Regal5State5Point3setERNS_15DispatchTableGLE
00179db0 W _ZNK5Regal5State5Point8toStringEPKc
002d36c0 W _ZNK5Regal5State6Enable3setERNS_12RegalContextE
00173fbc W _ZNK5Regal5State6Enable8toStringEPKc
002d2b00 W _ZNK5Regal5State7Polygon3setERNS_15DispatchTableGLE
0017a3c0 W _ZNK5Regal5State7Polygon8toStringEPKc
0017abec W _ZNK5Regal5State7Scissor8toStringEPKc
002d29e0 W _ZNK5Regal5State7Stencil3setERNS_15DispatchTableGLE
0017aee8 W _ZNK5Regal5State7Stencil8toStringEPKc
002d7004 W _ZNK5Regal5State8Lighting3setERNS_15DispatchTableGLE
00177660 W _ZNK5Regal5State8Lighting8toStringEPKc
0017b5d4 W _ZNK5Regal5State8Viewport8toStringEPKc
002d640c W _ZNK5Regal5State9PixelMode3setERNS_15DispatchTableGLE
00178580 W _ZNK5Regal5State9PixelMode8toStringEPKc
002d2c7c W _ZNK5Regal5State9Transform10transitionERNS_15DispatchTableGLERS1_
0017b140 W _ZNK5Regal5State9Transform8toStringEPKc
0019288c T _ZNK5Regal7EmuInfo11isSupportedERKNS_11ContextInfoEPKc
0019241c T _ZNK5Regal7EmuInfo12getExtensionERKNS_11ContextInfoEPKc
004e4c94 W _ZNK5s_int6is_intEv
004e4ccc W _ZNK6s_list7is_listEv
004c8b50 T _ZNK7ir_call5cloneEPvP10hash_table
004c8a18 T _ZNK7ir_loop5cloneEPvP10hash_table
004c0930 T _ZNK8ast_node5printEv
004e4c8c W _ZNK8s_number9is_numberEv
004e4cbc W _ZNK8s_symbol9is_symbolEv
004c3b04 T _ZNK9glsl_type10field_typeEPKc
004c3be0 T _ZNK9glsl_type11field_indexEPKc
004c3eec T _ZNK9glsl_type11std140_sizeEb
004c321c T _ZNK9glsl_type13get_base_typeEv
004c2374 T _ZNK9glsl_type13sampler_indexEv
004c3c48 T _ZNK9glsl_type15component_slotsEv
004c3b78 T _ZNK9glsl_type15field_precisionEPKc
004c3298 T _ZNK9glsl_type15get_scalar_typeEv
004c22f8 T _ZNK9glsl_type16contains_integerEv
004c227c T _ZNK9glsl_type16contains_samplerEv
004c3d2c T _ZNK9glsl_type21std140_base_alignmentEb
004c3cd8 T _ZNK9glsl_type25can_implicitly_convert_toEPKS_
004d4100 W _ZNK9glsl_type9is_scalarEv
004c87a4 T _ZNK9ir_return5cloneEPvP10hash_table
004c45e8 T _ZNK9ir_rvalue15is_negative_oneEv
004c9750 W _ZNK9ir_rvalue19variable_referencedEv
004c8594 T _ZNK9ir_rvalue5cloneEPvP10hash_table
004c45e0 T _ZNK9ir_rvalue6is_oneEv
004c45d8 T _ZNK9ir_rvalue7is_zeroEv
004c45f0 T _ZNK9ir_rvalue8is_basisEv
004c9748 W _ZNK9ir_rvalue9is_lvalueEv
00503214 T _ZNKSt10bad_typeid4whatEv
004fb0ec T _ZNKSt13bad_exception4whatEv
004fb12c T _ZNKSt20bad_array_new_length4whatEv
002203f0 W _ZNKSt6__ndk16__treeINS_12__value_typeINS_12basic_stringIcNS_11char_traitsIcEENS_9allocatorIcEEEEbEENS_19__map_value_compareIS7_S8_NS_4lessIS7_EELb1EEENS5_IS8_EEE14__count_uniqueIS7_EEjRKT_
002202f0 W _ZNKSt6__ndk16__treeINS_12__value_typeINS_12basic_stringIcNS_11char_traitsIcEENS_9allocatorIcEEEEP11ir_variableEENS_19__map_value_compareIS7_SA_NS_4lessIS7_EELb1EEENS5_ISA_EEE14__count_uniqueIS7_EEjRKT_
001a8204 W _ZNKSt6__ndk16__treeINS_12basic_stringIcNS_11char_traitsIcEENS_9allocatorIcEEEENS_4lessIS6_EENS4_IS6_EEE14__count_uniqueIS6_EEjRKT_
001c118c W _ZNKSt6__ndk16__treeINS_12basic_stringIcNS_11char_traitsIcEENS_9allocatorIcEEEENS_4lessIS6_EENS4_IS6_EEE4findIS6_EENS_21__tree_const_iteratorIS6_PNS_11__tree_nodeIS6_PvEEiEERKT_
005031e4 T _ZNKSt8bad_cast4whatEv
004fb10c T _ZNKSt9bad_alloc4whatEv
004fb0dc T _ZNKSt9exception4whatEv
005031f0 T _ZNSt10bad_typeidC1Ev
005031f0 T _ZNSt10bad_typeidC2Ev
00503204 T _ZNSt10bad_typeidD0Ev
00503200 T _ZNSt10bad_typeidD1Ev
00503200 T _ZNSt10bad_typeidD2Ev
004fb0e8 T _ZNSt13bad_exceptionD0Ev
004fb0d4 T _ZNSt13bad_exceptionD1Ev
004fb0d4 T _ZNSt13bad_exceptionD2Ev
004fb118 T _ZNSt20bad_array_new_lengthC1Ev
004fb118 T _ZNSt20bad_array_new_lengthC2Ev
004fb128 T _ZNSt20bad_array_new_lengthD0Ev
004fb0d4 T _ZNSt20bad_array_new_lengthD1Ev
004fb0d4 T _ZNSt20bad_array_new_lengthD2Ev
000f863c W _ZNSt6__ndk112__deque_baseINS_12basic_stringIcNS_11char_traitsIcEENS_9allocatorIcEEEENS4_IS6_EEE5clearEv
000e0c38 W _ZNSt6__ndk112basic_stringIcNS_11char_traitsIcEENS_9allocatorIcEEE6appendEjc
000f8b7c W _ZNSt6__ndk112basic_stringIcNS_11char_traitsIcEENS_9allocatorIcEEE6appendEPKcj
000e06cc W _ZNSt6__ndk112basic_stringIcNS_11char_traitsIcEENS_9allocatorIcEEE6assignEPKcj
0016878c W _ZNSt6__ndk112basic_stringIcNS_11char_traitsIcEENS_9allocatorIcEEE6insertEjPKcj
000f7e24 W _ZNSt6__ndk112basic_stringIcNS_11char_traitsIcEENS_9allocatorIcEEE7replaceEjjPKcj
000f8a68 W _ZNSt6__ndk112basic_stringIcNS_11char_traitsIcEENS_9allocatorIcEEE7reserveEj
00165360 W _ZNSt6__ndk112basic_stringIcNS_11char_traitsIcEENS_9allocatorIcEEED2Ev
0018e1b8 W _ZNSt6__ndk113__tree_removeIPNS_16__tree_node_baseIPvEEEEvT_S5_
00255e1c W _ZNSt6__ndk114__split_bufferIPN5Regal13DispatchTableERNS_9allocatorIS3_EEE9push_backEOS3_
000f7878 W _ZNSt6__ndk114__split_bufferIPNS_12basic_stringIcNS_11char_traitsIcEENS_9allocatorIcEEEENS4_IS7_EEE10push_frontEOS7_
000f7744 W _ZNSt6__ndk114__split_bufferIPNS_12basic_stringIcNS_11char_traitsIcEENS_9allocatorIcEEEENS4_IS7_EEE9push_backEOS7_
000f7ae4 W _ZNSt6__ndk114__split_bufferIPNS_12basic_stringIcNS_11char_traitsIcEENS_9allocatorIcEEEERNS4_IS7_EEE10push_frontERKS7_
000f79b0 W _ZNSt6__ndk114__split_bufferIPNS_12basic_stringIcNS_11char_traitsIcEENS_9allocatorIcEEEERNS4_IS7_EEE9push_backEOS7_
000e07e0 W _ZNSt6__ndk127__tree_balance_after_insertIPNS_16__tree_node_baseIPvEEEEvT_S5_
000f4550 W _ZNSt6__ndk13mapIjN5Regal3Emu3Iff7ProgramENS_4lessIjEENS_9allocatorINS_4pairIKjS4_EEEEEixERS9_
0017060c W _ZNSt6__ndk13mapIlPN5Regal12RegalContextENS_4lessIlEENS_9allocatorINS_4pairIKlS3_EEEEED2Ev
00488960 W _ZNSt6__ndk13mapINS_4pairIjjEEPN5Regal11IConversionENS_4lessIS2_EENS_9allocatorINS1_IKS2_S5_EEEEED2Ev
00488a3c W _ZNSt6__ndk13mapINS_4pairIjjEEPN5Regal11IConversionENS_4lessIS2_EENS_9allocatorINS1_IKS2_S5_EEEEEixEOS2_
001705f0 W _ZNSt6__ndk13mapIPvPN5Regal12RegalContextENS_4lessIS1_EENS_9allocatorINS_4pairIKS1_S4_EEEEED2Ev
00165388 W _ZNSt6__ndk13setINS_12basic_stringIcNS_11char_traitsIcEENS_9allocatorIcEEEENS_4lessIS6_EENS4_IS6_EEED2Ev
00171ac4 W _ZNSt6__ndk14listIPN5Regal12RegalContextENS_9allocatorIS3_EEE6removeERKS3_
000f73f0 W _ZNSt6__ndk15dequeINS_12basic_stringIcNS_11char_traitsIcEENS_9allocatorIcEEEENS4_IS6_EEE19__add_back_capacityEv
002dcbf8 W _ZNSt6__ndk16__treeIjNS_4lessIjEENS_9allocatorIjEEE14__erase_uniqueIjEEjRKT_
001a8f08 W _ZNSt6__ndk16__treeIjNS_4lessIjEENS_9allocatorIjEEE7destroyEPNS_11__tree_nodeIjPvEE
000e0680 W _ZNSt6__ndk16__treeINS_12__value_typeIiN5Regal14ShaderInstance7UniformEEENS_19__map_value_compareIiS5_NS_4lessIiEELb1EEENS_9allocatorIS5_EEE7destroyEPNS_11__tree_nodeIS5_PvEE
0019a7e4 W _ZNSt6__ndk16__treeINS_12__value_typeIiN5Regal3Emu17TextureLevelStateEEENS_19__map_value_compareIiS5_NS_4lessIiEELb1EEENS_9allocatorIS5_EEE14__assign_multiINS_21__tree_const_iteratorIS5_PNS_11__tree_nodeIS5_PvEEiEEEEvT_SK_
0019add4 W _ZNSt6__ndk16__treeINS_12__value_typeIiN5Regal3Emu17TextureLevelStateEEENS_19__map_value_compareIiS5_NS_4lessIiEELb1EEENS_9allocatorIS5_EEE21__emplace_unique_implIJNS_4pairINS3_12TextureState11FormatLevelES4_EEEEENSE_INS_15__tree_iteratorIS5_PNS_11__tree_nodeIS5_PvEEiEEbEEDpOT_
0019a66c W _ZNSt6__ndk16__treeINS_12__value_typeIiN5Regal3Emu17TextureLevelStateEEENS_19__map_value_compareIiS5_NS_4lessIiEELb1EEENS_9allocatorIS5_EEE7destroyEPNS_11__tree_nodeIS5_PvEE
001a8ed0 W _ZNSt6__ndk16__treeINS_12__value_typeIjjEENS_19__map_value_compareIjS2_NS_4lessIjEELb1EEENS_9allocatorIS2_EEE7destroyEPNS_11__tree_nodeIS2_PvEE
001a8cf4 W _ZNSt6__ndk16__treeINS_12__value_typeIjN5Regal14DebugTexObjectEEENS_19__map_value_compareIjS4_NS_4lessIjEELb1EEENS_9allocatorIS4_EEE7destroyEPNS_11__tree_nodeIS4_PvEE
001a8cbc W _ZNSt6__ndk16__treeINS_12__value_typeIjN5Regal17DebugBufferObjectEEENS_19__map_value_compareIjS4_NS_4lessIjEELb1EEENS_9allocatorIS4_EEE7destroyEPNS_11__tree_nodeIS4_PvEE
0019aee4 W _ZNSt6__ndk16__treeINS_12__value_typeIjN5Regal3Emu12TextureStateEEENS_19__map_value_compareIjS5_NS_4lessIjEELb1EEENS_9allocatorIS5_EEE5eraseENS_21__tree_const_iteratorIS5_PNS_11__tree_nodeIS5_PvEEiEE
000f92a8 W _ZNSt6__ndk16__treeINS_12__value_typeIjN5Regal3Emu3Iff23UserProgramInstanceInfoEEENS_19__map_value_compareIjS6_NS_4lessIjEELb1EEENS_9allocatorIS6_EEE25__emplace_unique_key_argsIjJRKNS_21piecewise_construct_tENS_5tupleIJRKjEEENSI_IJEEEEEENS_4pairINS_15__tree_iteratorIS6_PNS_11__tree_nodeIS6_PvEEiEEbEERKT_DpOT0_
001a90e4 W _ZNSt6__ndk16__treeINS_12__value_typeIjN5Regal3Emu3Iff23UserProgramInstanceInfoEEENS_19__map_value_compareIjS6_NS_4lessIjEELb1EEENS_9allocatorIS6_EEE7destroyEPNS_11__tree_nodeIS6_PvEE
000f9810 W _ZNSt6__ndk16__treeINS_12__value_typeIjN5Regal3Emu3Iff7ProgramEEENS_19__map_value_compareIjS6_NS_4lessIjEELb1EEENS_9allocatorIS6_EEE16__construct_nodeIJRKNS_21piecewise_construct_tENS_5tupleIJRKjEEENSI_IJEEEEEENS_10unique_ptrINS_11__tree_nodeIS6_PvEENS_22__tree_node_destructorINSB_ISQ_EEEEEEDpOT_
001a91a0 W _ZNSt6__ndk16__treeINS_12__value_typeIjN5Regal3Emu3Iff7ProgramEEENS_19__map_value_compareIjS6_NS_4lessIjEELb1EEENS_9allocatorIS6_EEE7destroyEPNS_11__tree_nodeIS6_PvEE
001a80bc W _ZNSt6__ndk16__treeINS_12__value_typeIjN5Regal3Emu3Vao6ObjectEEENS_19__map_value_compareIjS6_NS_4lessIjEELb1EEENS_9allocatorIS6_EEE25__emplace_unique_key_argsIjJRKNS_21piecewise_construct_tENS_5tupleIJRKjEEENSI_IJEEEEEENS_4pairINS_15__tree_iteratorIS6_PNS_11__tree_nodeIS6_PvEEiEEbEERKT_DpOT0_
001a91e4 W _ZNSt6__ndk16__treeINS_12__value_typeIjPN5Regal3Emu2So12TextureStateEEENS_19__map_value_compareIjS7_NS_4lessIjEELb1EEENS_9allocatorIS7_EEE7destroyEPNS_11__tree_nodeIS7_PvEE
001a921c W _ZNSt6__ndk16__treeINS_12__value_typeIjPN5Regal3Emu2So13SamplingStateEEENS_19__map_value_compareIjS7_NS_4lessIjEELb1EEENS_9allocatorIS7_EEE7destroyEPNS_11__tree_nodeIS7_PvEE
0018e0d4 W _ZNSt6__ndk16__treeINS_12__value_typeIlPN5Regal12RegalContextEEENS_19__map_value_compareIlS5_NS_4lessIlEELb1EEENS_9allocatorIS5_EEE14__erase_uniqueIlEEjRKT_
0017bcb0 W _ZNSt6__ndk16__treeINS_12__value_typeIlPN5Regal12RegalContextEEENS_19__map_value_compareIlS5_NS_4lessIlEELb1EEENS_9allocatorIS5_EEE7destroyEPNS_11__tree_nodeIS5_PvEE
000f7118 W _ZNSt6__ndk16__treeINS_12__value_typeIN5Regal3Emu18RegalFFUniformEnumENS3_3Iff11UniformInfoEEENS_19__map_value_compareIS4_S7_NS_4lessIS4_EELb1EEENS_9allocatorIS7_EEE7destroyEPNS_11__tree_nodeIS7_PvEE
001a9148 W _ZNSt6__ndk16__treeINS_12__value_typeIN5Regal3Emu3Iff22UserProgramInstanceKeyENS4_19UserProgramInstanceEEENS_19__map_value_compareIS5_S7_NS_4lessIS5_EELb1EEENS_9allocatorIS7_EEE7destroyEPNS_11__tree_nodeIS7_PvEE
0022065c W _ZNSt6__ndk16__treeINS_12__value_typeINS_12basic_stringIcNS_11char_traitsIcEENS_9allocatorIcEEEEbEENS_19__map_value_compareIS7_S8_NS_4lessIS7_EELb1EEENS5_IS8_EEE12__find_equalIS7_EERPNS_16__tree_node_baseIPvEERPNS_15__tree_end_nodeISJ_EERKT_
002204f0 W _ZNSt6__ndk16__treeINS_12__value_typeINS_12basic_stringIcNS_11char_traitsIcEENS_9allocatorIcEEEEbEENS_19__map_value_compareIS7_S8_NS_4lessIS7_EELb1EEENS5_IS8_EEE25__emplace_unique_key_argsIS7_JRKNS_21piecewise_construct_tENS_5tupleIJRKS7_EEENSJ_IJEEEEEENS_4pairINS_15__tree_iteratorIS8_PNS_11__tree_nodeIS8_PvEEiEEbEERKT_DpOT0_
00220910 W _ZNSt6__ndk16__treeINS_12__value_typeINS_12basic_stringIcNS_11char_traitsIcEENS_9allocatorIcEEEEbEENS_19__map_value_compareIS7_S8_NS_4lessIS7_EELb1EEENS5_IS8_EEE7destroyEPNS_11__tree_nodeIS8_PvEE
00220090 W _ZNSt6__ndk16__treeINS_12__value_typeINS_12basic_stringIcNS_11char_traitsIcEENS_9allocatorIcEEEEP11ir_variableEENS_19__map_value_compareIS7_SA_NS_4lessIS7_EELb1EEENS5_ISA_EEE12__find_equalIS7_EERPNS_16__tree_node_baseIPvEERPNS_15__tree_end_nodeISL_EERKT_
002207a4 W _ZNSt6__ndk16__treeINS_12__value_typeINS_12basic_stringIcNS_11char_traitsIcEENS_9allocatorIcEEEEP11ir_variableEENS_19__map_value_compareIS7_SA_NS_4lessIS7_EELb1EEENS5_ISA_EEE25__emplace_unique_key_argsIS7_JRKNS_21piecewise_construct_tENS_5tupleIJRKS7_EEENSL_IJEEEEEENS_4pairINS_15__tree_iteratorISA_PNS_11__tree_nodeISA_PvEEiEEbEERKT_DpOT0_
0022095c W _ZNSt6__ndk16__treeINS_12__value_typeINS_12basic_stringIcNS_11char_traitsIcEENS_9allocatorIcEEEEP11ir_variableEENS_19__map_value_compareIS7_SA_NS_4lessIS7_EELb1EEENS5_ISA_EEE7destroyEPNS_11__tree_nodeISA_PvEE
00488a04 W _ZNSt6__ndk16__treeINS_12__value_typeINS_4pairIjjEEPN5Regal11IConversionEEENS_19__map_value_compareIS3_S7_NS_4lessIS3_EELb1EEENS_9allocatorIS7_EEE7destroyEPNS_11__tree_nodeIS7_PvEE
0017bc78 W _ZNSt6__ndk16__treeINS_12__value_typeIPvPN5Regal12RegalContextEEENS_19__map_value_compareIS2_S6_NS_4lessIS2_EELb1EEENS_9allocatorIS6_EEE7destroyEPNS_11__tree_nodeIS6_S2_EE
001930b8 W _ZNSt6__ndk16__treeINS_12basic_stringIcNS_11char_traitsIcEENS_9allocatorIcEEEENS_4lessIS6_EENS4_IS6_EEE12__find_equalIS6_EERPNS_16__tree_node_baseIPvEENS_21__tree_const_iteratorIS6_PNS_11__tree_nodeIS6_SD_EEiEERPNS_15__tree_end_nodeISF_EESG_RKT_
001704a8 W _ZNSt6__ndk16__treeINS_12basic_stringIcNS_11char_traitsIcEENS_9allocatorIcEEEENS_4lessIS6_EENS4_IS6_EEE12__find_equalIS6_EERPNS_16__tree_node_baseIPvEERPNS_15__tree_end_nodeISF_EERKT_
00192a64 W _ZNSt6__ndk16__treeINS_12basic_stringIcNS_11char_traitsIcEENS_9allocatorIcEEEENS_4lessIS6_EENS4_IS6_EEE14__assign_multiINS_21__tree_const_iteratorIS6_PNS_11__tree_nodeIS6_PvEEiEEEEvT_SI_
00192d88 W _ZNSt6__ndk16__treeINS_12basic_stringIcNS_11char_traitsIcEENS_9allocatorIcEEEENS_4lessIS6_EENS4_IS6_EEE15__emplace_multiIJRKS6_EEENS_15__tree_iteratorIS6_PNS_11__tree_nodeIS6_PvEEiEEDpOT_
00170348 W _ZNSt6__ndk16__treeINS_12basic_stringIcNS_11char_traitsIcEENS_9allocatorIcEEEENS_4lessIS6_EENS4_IS6_EEE25__emplace_unique_key_argsIS6_JRKS6_EEENS_4pairINS_15__tree_iteratorIS6_PNS_11__tree_nodeIS6_PvEEiEEbEERKT_DpOT0_
00192f38 W _ZNSt6__ndk16__treeINS_12basic_stringIcNS_11char_traitsIcEENS_9allocatorIcEEEENS_4lessIS6_EENS4_IS6_EEE26__emplace_hint_unique_implIJRPKcEEENS_15__tree_iteratorIS6_PNS_11__tree_nodeIS6_PvEEiEENS_21__tree_const_iteratorIS6_SJ_iEEDpOT_
00193404 W _ZNSt6__ndk16__treeINS_12basic_stringIcNS_11char_traitsIcEENS_9allocatorIcEEEENS_4lessIS6_EENS4_IS6_EEE30__emplace_hint_unique_key_argsIS6_JRKS6_EEENS_15__tree_iteratorIS6_PNS_11__tree_nodeIS6_PvEEiEENS_21__tree_const_iteratorIS6_SI_iEERKT_DpOT0_
00170230 W _ZNSt6__ndk16__treeINS_12basic_stringIcNS_11char_traitsIcEENS_9allocatorIcEEEENS_4lessIS6_EENS4_IS6_EEE4findIS6_EENS_15__tree_iteratorIS6_PNS_11__tree_nodeIS6_PvEEiEERKT_
0016b938 W _ZNSt6__ndk16__treeINS_12basic_stringIcNS_11char_traitsIcEENS_9allocatorIcEEEENS_4lessIS6_EENS4_IS6_EEE7destroyEPNS_11__tree_nodeIS6_PvEE
0019ab18 W _ZNSt6__ndk16vectorIhNS_9allocatorIhEEE8__appendEj
002d980c W _ZNSt6__ndk16vectorIjNS_9allocatorIjEEE21__push_back_slow_pathIRKjEEvOT_
000df4c8 W _ZNSt6__ndk16vectorIjNS_9allocatorIjEEE6insertENS_11__wrap_iterIPKjEEjRS5_
0019ac0c W _ZNSt6__ndk16vectorIjNS_9allocatorIjEEE8__appendEj
002df184 W _ZNSt6__ndk16vectorIN5Regal11ClientState10PixelStoreENS_9allocatorIS3_EEE21__push_back_slow_pathIS3_EEvOT_
000e0f18 W _ZNSt6__ndk16vectorIN5Regal14ShaderInstance12ShaderSourceENS_9allocatorIS3_EEE21__push_back_slow_pathIS3_EEvOT_
000e0e3c W _ZNSt6__ndk16vectorIN5Regal14ShaderInstance15UniformInstanceENS_9allocatorIS3_EEE21__push_back_slow_pathIRKS3_EEvOT_
002d9ca8 W _ZNSt6__ndk16vectorIN5Regal5State11AccumBufferENS_9allocatorIS3_EEE21__push_back_slow_pathIS3_EEvOT_
002d9f7c W _ZNSt6__ndk16vectorIN5Regal5State11MultisampleENS_9allocatorIS3_EEE21__push_back_slow_pathIS3_EEvOT_
002da058 W _ZNSt6__ndk16vectorIN5Regal5State14PolygonStippleENS_9allocatorIS3_EEE21__push_back_slow_pathIS3_EEvOT_
002d99e0 W _ZNSt6__ndk16vectorIN5Regal5State4HintENS_9allocatorIS3_EEE21__push_back_slow_pathIS3_EEvOT_
002d9ea0 W _ZNSt6__ndk16vectorIN5Regal5State4LineENS_9allocatorIS3_EEE21__push_back_slow_pathIS3_EEvOT_
002d9bdc W _ZNSt6__ndk16vectorIN5Regal5State4ListENS_9allocatorIS3_EEE21__push_back_slow_pathIS3_EEvOT_
002d9ac8 W _ZNSt6__ndk16vectorIN5Regal5State6EnableENS_9allocatorIS3_EEE21__push_back_slow_pathIS3_EEvOT_
002d9d84 W _ZNSt6__ndk16vectorIN5Regal5State7ScissorENS_9allocatorIS3_EEE21__push_back_slow_pathIS3_EEvOT_
002d98d8 W _ZNSt6__ndk16vectorIN5Regal5State7StencilENS_9allocatorIS3_EEE21__push_back_slow_pathIS3_EEvOT_
00255d50 W _ZNSt6__ndk16vectorIPN5Regal13DispatchTableENS_9allocatorIS3_EEE21__push_back_slow_pathIS3_EEvOT_
00255b28 W _ZNSt6__ndk16vectorIPN5Regal13DispatchTableENS_9allocatorIS3_EEE6insertENS_11__wrap_iterIPKS3_EEOS3_
0019ad08 W _ZNSt6__ndk16vectorIPN5Regal3Emu16TextureUnitStateENS_9allocatorIS4_EEE21__push_back_slow_pathIRKS4_EEvOT_
0019a6a4 W _ZNSt6__ndk16vectorIPN5Regal3Emu16TextureUnitStateENS_9allocatorIS4_EEE6assignIPS4_EENS_9enable_ifIXaasr21__is_forward_iteratorIT_EE5valuesr16is_constructibleIS4_NS_15iterator_traitsISB_E9referenceEEE5valueEvE4typeESB_SB_
000f696c W _ZNSt6__ndk1plIcNS_11char_traitsIcEENS_9allocatorIcEEEENS_12basic_stringIT_T0_T1_EERKS9_SB_
005031c0 T _ZNSt8bad_castC1Ev
005031c0 T _ZNSt8bad_castC2Ev
005031d4 T _ZNSt8bad_castD0Ev
005031d0 T _ZNSt8bad_castD1Ev
005031d0 T _ZNSt8bad_castD2Ev
004fb0f8 T _ZNSt9bad_allocC1Ev
004fb0f8 T _ZNSt9bad_allocC2Ev
004fb108 T _ZNSt9bad_allocD0Ev
004fb0d4 T _ZNSt9bad_allocD1Ev
004fb0d4 T _ZNSt9bad_allocD2Ev
004fb0d6 T _ZNSt9exceptionD0Ev
004fb0d4 T _ZNSt9exceptionD1Ev
004fb0d4 T _ZNSt9exceptionD2Ev
005031ba T _ZNSt9type_infoD0Ev
005031b8 T _ZNSt9type_infoD1Ev
005031b8 T _ZNSt9type_infoD2Ev
004f9d38 W _Znwj
004f9d7c W _ZnwjRKSt9nothrow_t
004f9dd4 W _ZnwjSt11align_val_t
004f9e54 W _ZnwjSt11align_val_tRKSt9nothrow_t
004fa5ec T _ZSt10unexpectedv
004fa604 T _ZSt13get_terminatev
004fb1c8 T _ZSt13set_terminatePFvvE
004fa584 T _ZSt14get_unexpectedv
004fb198 T _ZSt14set_unexpectedPFvvE
004fa670 T _ZSt15get_new_handlerv
004fa64c T _ZSt15set_new_handlerPFvvE
004f9d10 T _ZSt17__throw_bad_allocv
006535b6 R _ZSt7nothrow
004fa598 T _ZSt9terminatev
00660be8 D _ZTIa
00660b48 D _ZTIb
00660b98 D _ZTIc
00660df0 D _ZTId
00660da0 D _ZTIDh
00660eb8 D _ZTIDi
00660b20 D _ZTIDn
00660e90 D _ZTIDs
00660e68 D _ZTIDu
00660e18 D _ZTIe
00660dc8 D _ZTIf
00660e40 D _ZTIg
00660bc0 D _ZTIh
00660c60 D _ZTIi
00660c88 D _ZTIj
00660cb0 D _ZTIl
00660cd8 D _ZTIm
00660d50 D _ZTIn
00660f40 D _ZTIN10__cxxabiv116__enum_type_infoE
00660a6c D _ZTIN10__cxxabiv116__shim_type_infoE
00660efc D _ZTIN10__cxxabiv117__array_type_infoE
00660a78 D _ZTIN10__cxxabiv117__class_type_infoE
00660a84 D _ZTIN10__cxxabiv117__pbase_type_infoE
00660a90 D _ZTIN10__cxxabiv119__pointer_type_infoE
00660a9c D _ZTIN10__cxxabiv120__function_type_infoE
00660f9c D _ZTIN10__cxxabiv120__si_class_type_infoE
00660fd0 D _ZTIN10__cxxabiv121__vmi_class_type_infoE
00660aec D _ZTIN10__cxxabiv123__fundamental_type_infoE
00660aa8 D _ZTIN10__cxxabiv129__pointer_to_member_type_infoE
00660d78 D _ZTIo
00660bf0 D _ZTIPa
00660b50 D _ZTIPb
00660ba0 D _ZTIPc
00660df8 D _ZTIPd
00660da8 D _ZTIPDh
00660ec0 D _ZTIPDi
00660b28 D _ZTIPDn
00660e98 D _ZTIPDs
00660e70 D _ZTIPDu
00660e20 D _ZTIPe
00660dd0 D _ZTIPf
00660e48 D _ZTIPg
00660bc8 D _ZTIPh
00660c68 D _ZTIPi
00660c90 D _ZTIPj
00660c00 D _ZTIPKa
00660b60 D _ZTIPKb
00660bb0 D _ZTIPKc
00660e08 D _ZTIPKd
00660db8 D _ZTIPKDh
00660ed0 D _ZTIPKDi
00660b38 D _ZTIPKDn
00660ea8 D _ZTIPKDs
00660e80 D _ZTIPKDu
00660e30 D _ZTIPKe
00660de0 D _ZTIPKf
00660e58 D _ZTIPKg
00660bd8 D _ZTIPKh
00660c78 D _ZTIPKi
00660ca0 D _ZTIPKj
00660cc8 D _ZTIPKl
00660cf0 D _ZTIPKm
00660d68 D _ZTIPKn
00660d90 D _ZTIPKo
00660c28 D _ZTIPKs
00660c50 D _ZTIPKt
00660b10 D _ZTIPKv
00660b88 D _ZTIPKw
00660d18 D _ZTIPKx
00660d40 D _ZTIPKy
00660cb8 D _ZTIPl
00660ce0 D _ZTIPm
00660d58 D _ZTIPn
00660d80 D _ZTIPo
00660c18 D _ZTIPs
00660c40 D _ZTIPt
00660b00 D _ZTIPv
00660b78 D _ZTIPw
00660d08 D _ZTIPx
00660d30 D _ZTIPy
00660c10 D _ZTIs
0066107c D _ZTISt10bad_typeid
0065fb98 D _ZTISt13bad_exception
0065fbb0 D _ZTISt20bad_array_new_length
00661070 D _ZTISt8bad_cast
0065fba4 D _ZTISt9bad_alloc
0065fb7c D _ZTISt9exception
00661068 D _ZTISt9type_info
00660c38 D _ZTIt
00660af8 D _ZTIv
00660b70 D _ZTIw
00660d00 D _ZTIx
00660d28 D _ZTIy
006544c5 R _ZTSa
006544a1 R _ZTSb
006544b3 R _ZTSc
0065453d R _ZTSd
00654528 R _ZTSDh
00654570 R _ZTSDi
00654495 R _ZTSDn
00654564 R _ZTSDs
00654558 R _ZTSDu
00654546 R _ZTSe
00654534 R _ZTSf
0065454f R _ZTSg
006544bc R _ZTSh
006544e0 R _ZTSi
006544e9 R _ZTSj
006544f2 R _ZTSl
006544fb R _ZTSm
00654516 R _ZTSn
0065459e R _ZTSN10__cxxabiv116__enum_type_infoE
0065437a R _ZTSN10__cxxabiv116__shim_type_infoE
0065457c R _ZTSN10__cxxabiv117__array_type_infoE
0065439b R _ZTSN10__cxxabiv117__class_type_infoE
006543bd R _ZTSN10__cxxabiv117__pbase_type_infoE
006543df R _ZTSN10__cxxabiv119__pointer_type_infoE
00654403 R _ZTSN10__cxxabiv120__function_type_infoE
006545bf R _ZTSN10__cxxabiv120__si_class_type_infoE
006545e4 R _ZTSN10__cxxabiv121__vmi_class_type_infoE
00654464 R _ZTSN10__cxxabiv123__fundamental_type_infoE
00654428 R _ZTSN10__cxxabiv129__pointer_to_member_type_infoE
0065451f R _ZTSo
006544c7 R _ZTSPa
006544a3 R _ZTSPb
006544b5 R _ZTSPc
0065453f R _ZTSPd
0065452b R _ZTSPDh
00654573 R _ZTSPDi
00654498 R _ZTSPDn
00654567 R _ZTSPDs
0065455b R _ZTSPDu
00654548 R _ZTSPe
00654536 R _ZTSPf
00654551 R _ZTSPg
006544be R _ZTSPh
006544e2 R _ZTSPi
006544eb R _ZTSPj
006544ca R _ZTSPKa
006544a6 R _ZTSPKb
006544b8 R _ZTSPKc
00654542 R _ZTSPKd
0065452f R _ZTSPKDh
00654577 R _ZTSPKDi
0065449c R _ZTSPKDn
0065456b R _ZTSPKDs
0065455f R _ZTSPKDu
0065454b R _ZTSPKe
00654539 R _ZTSPKf
00654554 R _ZTSPKg
006544c1 R _ZTSPKh
006544e5 R _ZTSPKi
006544ee R _ZTSPKj
006544f7 R _ZTSPKl
00654500 R _ZTSPKm
0065451b R _ZTSPKn
00654524 R _ZTSPKo
006544d3 R _ZTSPKs
006544dc R _ZTSPKt
00654491 R _ZTSPKv
006544af R _ZTSPKw
00654509 R _ZTSPKx
00654512 R _ZTSPKy
006544f4 R _ZTSPl
006544fd R _ZTSPm
00654518 R _ZTSPn
00654521 R _ZTSPo
006544d0 R _ZTSPs
006544d9 R _ZTSPt
0065448e R _ZTSPv
006544ac R _ZTSPw
00654506 R _ZTSPx
0065450f R _ZTSPy
006544ce R _ZTSs
00654623 R _ZTSSt10bad_typeid
006535c4 R _ZTSSt13bad_exception
006535e3 R _ZTSSt20bad_array_new_length
00654617 R _ZTSSt8bad_cast
006535d6 R _ZTSSt9bad_alloc
006535b7 R _ZTSSt9exception
0065460a R _ZTSSt9type_info
006544d7 R _ZTSt
0065448c R _ZTSv
006544aa R _ZTSw
00654504 R _ZTSx
0065450d R _ZTSy
0065d304 D _ZTV10ir_discard
0065d56c D _ZTV10ir_swizzle
0065d3dc D _ZTV10ir_texture
0065e2c8 V _ZTV11examine_rhs
0065d958 D _ZTV11ir_constant
0065d8a0 D _ZTV11ir_function
0065df44 D _ZTV11ir_validate
0065d510 D _ZTV11ir_variable
0065f8f4 V _ZTV11ubo_visitor
0065cb40 D _ZTV12ast_function
0065d2a8 D _ZTV12ir_loop_jump
0065d840 D _ZTV13ir_assignment
0065d644 D _ZTV13ir_expression
0065e234 D _ZTV13loop_analysis
0065cbe8 D _ZTV14ast_case_label
0065bd34 D _ZTV14ast_expression
0065d0f0 D _ZTV14ir_dereference
0065cb58 D _ZTV15ast_declaration
0065cbd0 D _ZTV15ast_switch_body
0065f8dc V _ZTV16count_block_size
0065f5ec D _ZTV16ir_print_visitor
0065bd4c D _ZTV17ast_uniform_block
0065f848 V _ZTV17call_link_visitor
0065f684 D _ZTV17ir_rvalue_visitor
0065e484 V _ZTV17loop_unroll_count
0065cc18 D _ZTV18ast_case_statement
0065f528 D _ZTV18ast_expression_bin
0065cb88 D _ZTV18ast_jump_statement
0065bd74 D _ZTV18ast_type_specifier
0065f924 V _ZTV18count_uniform_size
0065e194 V _ZTV18find_deref_visitor
0065cc00 D _ZTV19ast_case_label_list
0065cb70 D _ZTV19ast_declarator_list
0065e3f0 D _ZTV19loop_unroll_visitor
0065e100 V _ZTV20array_sizing_visitor
0065cc60 D _ZTV20ast_struct_specifier
0065cbb8 D _ZTV20ast_switch_statement
0065d740 D _ZTV20ir_dereference_array
0065e35c D _ZTV20loop_control_visitor
0065d9d4 V _ZTV21fixup_ir_call_visitor
0065da68 V _ZTV21has_recursion_visitor
0065d7c0 D _ZTV21ir_dereference_record
0065d8fc D _ZTV21ir_function_signature
0065dd94 D _ZTV21ir_print_glsl_visitor
0065d4b4 D _ZTV21ir_typedecl_statement
0065cb10 D _ZTV22ast_compound_statement
0065e6d4 V _ZTV22ir_lower_jumps_visitor
0065d458 D _ZTV22ir_precision_statement
0065cc30 D _ZTV23ast_case_statement_list
0065cca8 D _ZTV23ast_function_definition
0065f540 D _ZTV23ast_function_expression
0065cc48 D _ZTV23ast_iteration_statement
0065cba0 D _ZTV23ast_selection_statement
0065dfd8 V _ZTV23find_assignment_visitor
0065deb0 V _ZTV23ir_decl_removal_visitor
0065d6c0 D _ZTV23ir_dereference_variable
0065dafc D _ZTV23ir_hierarchical_visitor
0065f71c D _ZTV23ir_rvalue_enter_visitor
0065de1c D _ZTV23ir_struct_usage_visitor
0065cb28 D _ZTV24ast_expression_statement
0065cc78 D _ZTV24ast_fully_specified_type
0065cc90 D _ZTV24ast_parameter_declarator
0065f90c D _ZTV24program_resource_visitor
0065e860 D _ZTV26ir_array_reference_visitor
0065e8f4 D _ZTV26ir_array_splitting_visitor
0065e5ac D _ZTV26lower_discard_flow_visitor
0065e640 D _ZTV26lower_instructions_visitor
0065f93c V _ZTV26parcel_out_uniform_storage
0065e518 D _ZTV27lower_clip_distance_visitor
0065f7b4 D _ZTV28ir_variable_refcount_visitor
0065f954 V _ZTV29tfeedback_candidate_generator
0065f558 D _ZTV30ir_function_can_inline_visitor
0065eed4 D _ZTV30ir_sampler_replacement_visitor
0065e734 D _ZTV31ir_vec_index_to_swizzle_visitor
0065faac D _ZTV33link_uniform_block_active_visitor
0065d190 D _ZTV5ir_if
0065f448 D _ZTV5s_int
0065f42c D _ZTV6s_list
0065d1ec D _ZTV7ir_call
0065d5e8 D _ZTV7ir_loop
0065f468 D _ZTV7s_float
0065caf8 D _ZTV8ast_node
0065f410 D _ZTV8s_symbol
0065d24c D _ZTV9ir_return
0065d360 D _ZTV9ir_rvalue
00660f24 D _ZTVN10__cxxabiv116__enum_type_infoE
00660ab4 D _ZTVN10__cxxabiv116__shim_type_infoE
00660ee0 D _ZTVN10__cxxabiv117__array_type_infoE
00660f4c D _ZTVN10__cxxabiv117__class_type_infoE
00660fdc D _ZTVN10__cxxabiv117__pbase_type_infoE
00660ff8 D _ZTVN10__cxxabiv119__pointer_type_infoE
00660f08 D _ZTVN10__cxxabiv120__function_type_infoE
00660f74 D _ZTVN10__cxxabiv120__si_class_type_infoE
00660fa8 D _ZTVN10__cxxabiv121__vmi_class_type_infoE
00660ad0 D _ZTVN10__cxxabiv123__fundamental_type_infoE
00661014 D _ZTVN10__cxxabiv129__pointer_to_member_type_infoE
0065b868 V _ZTVN5Regal10Conversion8RegistryILj6406ELj5121ENS0_5PixelIhLj1ELj0ELj0ELj0ELj255EEEEE
0065b8f8 V _ZTVN5Regal10Conversion8RegistryILj6407ELj33635ENS0_5PixelItLj2ELj63488ELj2016ELj31ELj0EEEEE
0065b964 V _ZTVN5Regal10Conversion8RegistryILj6407ELj5121ENS0_8PixelAnyINS0_8uint24_tELj3ELj255ELj65280ELj16711680ELj0EEEEE
0065b91c V _ZTVN5Regal10Conversion8RegistryILj6408ELj32819ENS0_5PixelItLj2ELj61440ELj3840ELj240ELj15EEEEE
0065b940 V _ZTVN5Regal10Conversion8RegistryILj6408ELj32820ENS0_5PixelItLj2ELj63488ELj1984ELj62ELj1EEEEE
0065b8b0 V _ZTVN5Regal10Conversion8RegistryILj6408ELj32848ENS0_5PixelItLj2ELj31ELj992ELj31744ELj0EEEEE
0065b988 V _ZTVN5Regal10Conversion8RegistryILj6408ELj5121ENS0_5PixelIjLj4ELj255ELj65280ELj16711680ELj4278190080EEEEE
0065b88c V _ZTVN5Regal10Conversion8RegistryILj6409ELj5121ENS0_5PixelIhLj1ELj255ELj0ELj0ELj0EEEEE
0065b8d4 V _ZTVN5Regal10Conversion8RegistryILj6410ELj5121ENS0_5PixelItLj2ELj255ELj0ELj0ELj65280EEEEE
0065b710 V _ZTVN5Regal6Shader14add_alpha_testE
0065b7a4 V _ZTVN5Regal6Shader16replace_builtinsE
00661044 D _ZTVSt10bad_typeid
0065fb84 D _ZTVSt13bad_exception
0065fb54 D _ZTVSt20bad_array_new_length
00661030 D _ZTVSt8bad_cast
0065fb40 D _ZTVSt9bad_alloc
0065fb68 D _ZTVSt9exception
00661058 D _ZTVSt9type_info
00670640 V _ZZN5Regal2r3mlIfEENS0_7Matrix4IT_EERKS4_S6_E7product
0066901c V _ZZN5Regal7Logging7messageEPKcS2_S2_RKNSt6__ndk112basic_stringIcNS3_11char_traitsIcEENS3_9allocatorIcEEEEE10trimSuffix
         U abort
         U accept
         U atoi
         U bind
         U bsd_signal
         U bsearch
         U calloc
         U ceilf
         U chdir
         U clearerr
         U close
         U closedir
         U connect
         U cosf
         U dladdr
         U dlclose
         U dlopen
         U dlsym
         U dup2
001651d4 T eglBindAPI
0016514c T eglBindTexImage
001649a8 T eglChooseConfig
001642d0 T eglClientWaitSyncKHR
001647e0 T eglClientWaitSyncNV
001649f4 T eglCopyBuffers
0016472c T eglCoverageMaskNV
00164760 T eglCoverageOperationNV
00164a38 T eglCreateContext
001646a4 T eglCreateDRMImageMESA
0016482c T eglCreateFenceSyncNV
001643e0 T eglCreateImageKHR
00165208 T eglCreatePbufferFromClientBuffer
00164a84 T eglCreatePbufferSurface
00164ac8 T eglCreatePixmapSurface
0016459c T eglCreateStreamFromFileDescriptorKHR
00164614 T eglCreateStreamProducerSurfaceKHR
00164314 T eglCreateSyncKHR
00164b14 T eglCreateWindowSurface
00164b60 T eglDestroyContext
0016442c T eglDestroyImageKHR
00164bac T eglDestroySurface
00164358 T eglDestroySyncKHR
00164870 T eglDestroySyncNV
001646e0 T eglExportDRMImageMESA
001648a4 T eglFenceNV
00164be8 T eglGetConfigAttrib
00164c34 T eglGetConfigs
00164c80 T eglGetCurrentContext
00164cac T eglGetCurrentDisplay
00164cd4 T eglGetCurrentSurface
00164d08 T eglGetDisplay
00164d40 T eglGetError
00164d68 T eglGetProcAddress
001645d8 T eglGetStreamFileDescriptorKHR
00164394 T eglGetSyncAttribKHR
001648d8 T eglGetSyncAttribNV
00164958 T eglGetSystemTimeFrequencyNV
00164980 T eglGetSystemTimeNV
00164e70 T eglInitialize
00164468 T eglLockSurfaceKHR
00164eb4 T eglMakeCurrent
00164794 T eglPostSubBufferNV
00165254 T eglQueryAPI
00164f1c T eglQueryContext
00164f68 T eglQueryString
00164fa4 T eglQuerySurface
00164284 T eglQuerySurfacePointerANGLE
00165190 T eglReleaseTexImage
0016527c T eglReleaseThread
0016491c T eglSignalSyncNV
001644e8 T eglStreamConsumerAcquireKHR
00164524 T eglStreamConsumerGLTextureExternalKHR
00164560 T eglStreamConsumerReleaseKHR
001652a4 T eglSurfaceAttrib
00164ff0 T eglSwapBuffers
001652f0 T eglSwapInterval
001650bc T eglTerminate
001644ac T eglUnlockSurfaceKHR
0016532c T eglWaitClient
001650f0 T eglWaitGL
00165118 T eglWaitNative
00164660 T eglWaitSyncKHR
         U execle
         U exit
         U exp2f
         U expf
         U fclose
         U fcntl
         U fdopen
         U feof
         U ferror
         U fflush
         U fgetc
         U fgets
         U fileno
         U flockfile
         U floor
         U floorf
         U fopen
         U fork
         U fprintf
         U fputc
         U fputs
         U fread
         U free
         U fseeko
         U funlockfile
         U fwrite
00497254 T get_system_name
         U getc
         U getenv
         U gethostbyname
         U getpid
         U getpwnam
         U getsockname
         U gettimeofday
000fa688 T glAccum
001435dc T glActiveProgramEXT
00121938 T glActiveShaderProgram
0014393c T glActiveStencilFaceEXT
00106c24 T glActiveTexture
0011e6e4 T glActiveTextureARB
00154264 T glActiveVaryingNV
001641e4 T glAddSwapHintRectWIN
0012f548 T glAlphaFragmentOp1ATI
0012f5e8 T glAlphaFragmentOp2ATI
0012f688 T glAlphaFragmentOp3ATI
000fa714 T glAlphaFunc
0015b0f8 T glAlphaFuncQCOM
0015bc18 T glAlphaFuncx
001415a8 T glApplyTextureEXT
0015656c T glAreProgramsResidentNV
00105858 T glAreTexturesResident
00144118 T glAreTexturesResidentEXT
001058f4 T glArrayElement
00144c38 T glArrayElementEXT
001300c8 T glArrayObjectATI
0015fe94 T glAsyncMarkerSGIX
00123fd0 T glAttachObjectARB
0010ac10 T glAttachShader
000fa7a0 T glBegin
0010e5a8 T glBeginConditionalRender
0014aed8 T glBeginConditionalRenderNV
0014a51c T glBeginConditionalRenderNVX
0012f724 T glBeginFragmentShaderATI
001501cc T glBeginOcclusionQueryNV
001119e8 T glBeginPerfMonitorAMD
0010a12c T glBeginQuery
001126e0 T glBeginQueryANGLE
0011fa78 T glBeginQueryARB
00141d38 T glBeginQueryEXT
00127e8c T glBeginQueryIndexed
00142b40 T glBeginSceneEXT
0010e638 T glBeginTransformFeedback
00144820 T glBeginTransformFeedbackEXT
001542f4 T glBeginTransformFeedbackNV
00145814 T glBeginVertexShaderEXT
00158b4c T glBeginVideoCaptureNV
0010aca0 T glBindAttribLocation
0012c9f4 T glBindAttribLocationARB
0010a1b8 T glBindBuffer
00129f68 T glBindBufferARB
00128444 T glBindBufferBase
001448a8 T glBindBufferBaseEXT
0015437c T glBindBufferBaseNV
0014493c T glBindBufferOffsetEXT
00154414 T glBindBufferOffsetNV
001284dc T glBindBufferRange
001449dc T glBindBufferRangeEXT
001544b4 T glBindBufferRangeNV
0011e178 T glBindBuffersBase
0011e214 T glBindBuffersRange
0010e6c0 T glBindFragDataLocation
0013fac0 T glBindFragDataLocationEXT
00115734 T glBindFragDataLocationIndexed
0012f7a0 T glBindFragmentShaderATI
0011a788 T glBindFramebuffer
0013edc8 T glBindFramebufferEXT
00159444 T glBindFramebufferOES
00123ea8 T glBindImageTexture
00143784 T glBindImageTextureEXT
0011e2b4 T glBindImageTextures
00145890 T glBindLightParameterEXT
00145924 T glBindMaterialParameterEXT
00134b04 T glBindMultiTextureEXT
001459b8 T glBindParameterEXT
0012a5d0 T glBindProgramARB
00156608 T glBindProgramNV
001219c8 T glBindProgramPipeline
0011a818 T glBindRenderbuffer
0013ee58 T glBindRenderbufferEXT
001594d4 T glBindRenderbufferOES
00121110 T glBindSampler
0011e34c T glBindSamplers
00145a44 T glBindTexGenParameterEXT
0010597c T glBindTexture
001441b4 T glBindTextureEXT
0011e3e4 T glBindTextures
00116670 T glBindTextureUnit
00145ae0 T glBindTextureUnitParameterEXT
00127acc T glBindTransformFeedback
001548d0 T glBindTransformFeedbackNV
00128a5c T glBindVertexArray
00114098 T glBindVertexArrayAPPLE
0015ae34 T glBindVertexArrayOES
00129264 T glBindVertexBuffer
0011e478 T glBindVertexBuffers
00145b74 T glBindVertexShaderEXT
00158bd4 T glBindVideoCaptureStreamBufferNV
00158c74 T glBindVideoCaptureStreamTextureNV
0013322c T glBinormal3bEXT
001332c4 T glBinormal3bvEXT
0013334c T glBinormal3dEXT
001333ec T glBinormal3dvEXT
00133474 T glBinormal3fEXT
0013350c T glBinormal3fvEXT
00133594 T glBinormal3iEXT
0013362c T glBinormal3ivEXT
001336b4 T glBinormal3sEXT
0013374c T glBinormal3svEXT
001337d4 T glBinormalPointerEXT
000fa83c T glBitmap
00148678 T glBlendBarrierKHR
0014adcc T glBlendBarrierNV
001086b0 T glBlendColor
0013259c T glBlendColorEXT
00108750 T glBlendEquation
0013276c T glBlendEquationEXT
00110bc4 T glBlendEquationi
00119fac T glBlendEquationiARB
001113f4 T glBlendEquationIndexedAMD
001593bc T glBlendEquationOES
0010ad34 T glBlendEquationSeparate
0013263c T glBlendEquationSeparateEXT
00110b2c T glBlendEquationSeparatei
00119f14 T glBlendEquationSeparateiARB
00111484 T glBlendEquationSeparateIndexedAMD
0015928c T glBlendEquationSeparateOES
000fa8d8 T glBlendFunc
00110cf4 T glBlendFunci
0011a0dc T glBlendFunciARB
0011151c T glBlendFuncIndexedAMD
001087d8 T glBlendFuncSeparate
001326cc T glBlendFuncSeparateEXT
00110c54 T glBlendFuncSeparatei
0011a03c T glBlendFuncSeparateiARB
001115b4 T glBlendFuncSeparateIndexedAMD
00148098 T glBlendFuncSeparateINGR
0015931c T glBlendFuncSeparateOES
0014ae48 T glBlendParameteriNV
0011a8a4 T glBlitFramebuffer
001123d8 T glBlitFramebufferANGLE
0013ec88 T glBlitFramebufferEXT
0014c43c T glBlitFramebufferNV
00116700 T glBlitNamedFramebuffer
00155e60 T glBufferAddressRangeNV
0010a248 T glBufferData
00129ff8 T glBufferDataARB
001260f8 T glBufferPageCommitmentARB
001135c8 T glBufferParameteriAPPLE
0014943c T glBufferRegionEnabled
00115868 T glBufferStorage
0010a2e8 T glBufferSubData
0012a098 T glBufferSubDataARB
000fa964 T glCallList
000fa9e8 T glCallLists
0011a944 T glCheckFramebufferStatus
0013eee8 T glCheckFramebufferStatusEXT
00159564 T glCheckFramebufferStatusOES
0011679c T glCheckNamedFramebufferStatus
00134b9c T glCheckNamedFramebufferStatusEXT
0010e754 T glClampColor
00115e88 T glClampColorARB
000faa7c T glClear
000fab00 T glClearAccum
00115a40 T glClearBufferData
0010e7e4 T glClearBufferfi
0010e884 T glClearBufferfv
0010e91c T glClearBufferiv
00115ae0 T glClearBufferSubData
0010e9b0 T glClearBufferuiv
000fab9c T glClearColor
00143d7c T glClearColorIiEXT
00143e1c T glClearColorIuiEXT
0015bd10 T glClearColorx
000fac38 T glClearDepth
0014b234 T glClearDepthdNV
001148a4 T glClearDepthf
0015a1a4 T glClearDepthfOES
0015be3c T glClearDepthx
000facc4 T glClearIndex
00116830 T glClearNamedBufferData
00115b80 T glClearNamedBufferDataEXT
001168d0 T glClearNamedBufferSubData
00115c1c T glClearNamedBufferSubDataEXT
00116970 T glClearNamedFramebufferfi
00116a0c T glClearNamedFramebufferfv
00116aac T glClearNamedFramebufferiv
00116b4c T glClearNamedFramebufferuiv
000fad48 T glClearStencil
00115cbc T glClearTexImage
00115d5c T glClearTexSubImage
00106cac T glClientActiveTexture
0011e76c T glClientActiveTextureARB
001309b4 T glClientActiveVertexStreamATI
00134c30 T glClientAttribDefaultEXT
00126334 T glClientWaitSync
00113b54 T glClientWaitSyncAPPLE
00115dfc T glClipControl
000fadcc T glClipPlane
0015df7c T glClipPlanef
0015a234 T glClipPlanefOES
0015e0ac T glClipPlanex
000fae58 T glColor3b
000faeec T glColor3bv
000faf70 T glColor3d
000fb00c T glColor3dv
000fb090 T glColor3f
000fb124 T glColor3fv
0016293c T glColor3fVertex3fSUN
001629dc T glColor3fVertex3fvSUN
0014e3d8 T glColor3hNV
0014e470 T glColor3hvNV
000fb1a8 T glColor3i
000fb23c T glColor3iv
000fb2c0 T glColor3s
000fb354 T glColor3sv
000fb3d8 T glColor3ub
000fb46c T glColor3ubv
000fb4f0 T glColor3ui
000fb584 T glColor3uiv
000fb608 T glColor3us
000fb69c T glColor3usv
000fb720 T glColor4b
000fb7bc T glColor4bv
000fb840 T glColor4d
000fb8dc T glColor4dv
000fb960 T glColor4f
00162a6c T glColor4fNormal3fVertex3fSUN
00162b0c T glColor4fNormal3fVertex3fvSUN
000fb9fc T glColor4fv
0014e4f8 T glColor4hNV
0014e598 T glColor4hvNV
000fba80 T glColor4i
000fbb1c T glColor4iv
000fbba0 T glColor4s
000fbc3c T glColor4sv
000fbcc0 T glColor4ub
000fbd5c T glColor4ubv
00162ba4 T glColor4ubVertex2fSUN
00162c44 T glColor4ubVertex2fvSUN
00162cd4 T glColor4ubVertex3fSUN
00162d70 T glColor4ubVertex3fvSUN
000fbde0 T glColor4ui
000fbe7c T glColor4uiv
000fbf00 T glColor4us
000fbf9c T glColor4usv
0015bf30 T glColor4x
00155f00 T glColorFormatNV
0012f828 T glColorFragmentOp1ATI
0012f8c8 T glColorFragmentOp2ATI
0012f968 T glColorFragmentOp3ATI
000fc020 T glColorMask
0010ea48 T glColorMaski
0013d9e0 T glColorMaskIndexedEXT
000fc0bc T glColorMaterial
0012cbc0 T glColorP3ui
0012cc50 T glColorP3uiv
0012cce0 T glColorP4ui
0012cd70 T glColorP4uiv
00105a0c T glColorPointer
00144cc0 T glColorPointerEXT
00147a60 T glColorPointerListIBM
001482f4 T glColorPointervINTEL
0011c3a4 T glColorSubTable
001327f4 T glColorSubTableEXT
0011c444 T glColorTable
0014212c T glColorTableEXT
0011c4e4 T glColorTableParameterfv
00161b34 T glColorTableParameterfvSGI
0011c578 T glColorTableParameteriv
00161bcc T glColorTableParameterivSGI
00161c64 T glColorTableSGI
00152c2c T glCombinerInputNV
00152ccc T glCombinerOutputNV
00152d9c T glCombinerParameterfNV
00152e2c T glCombinerParameterfvNV
00152ebc T glCombinerParameteriNV
00152f4c T glCombinerParameterivNV
00153428 T glCombinerStageParameterfvNV
0010adc4 T glCompileShader
00124060 T glCompileShaderARB
00125d58 T glCompileShaderIncludeARB
00134cb8 T glCompressedMultiTexImage1DEXT
00134d58 T glCompressedMultiTexImage2DEXT
00134df8 T glCompressedMultiTexImage3DEXT
00134e98 T glCompressedMultiTexSubImage1DEXT
00134f38 T glCompressedMultiTexSubImage2DEXT
00134fd4 T glCompressedMultiTexSubImage3DEXT
00106d30 T glCompressedTexImage1D
00126adc T glCompressedTexImage1DARB
00106dd0 T glCompressedTexImage2D
00126b7c T glCompressedTexImage2DARB
00106e70 T glCompressedTexImage3D
00126c1c T glCompressedTexImage3DARB
0015a520 T glCompressedTexImage3DOES
00106f10 T glCompressedTexSubImage1D
00126cbc T glCompressedTexSubImage1DARB
00106fac T glCompressedTexSubImage2D
00126d5c T glCompressedTexSubImage2DARB
0010704c T glCompressedTexSubImage3D
00126dfc T glCompressedTexSubImage3DARB
0015a5c0 T glCompressedTexSubImage3DOES
00135074 T glCompressedTextureImage1DEXT
00135114 T glCompressedTextureImage2DEXT
001351b4 T glCompressedTextureImage3DEXT
00116bec T glCompressedTextureSubImage1D
00135254 T glCompressedTextureSubImage1DEXT
00116c88 T glCompressedTextureSubImage2D
001352f4 T glCompressedTextureSubImage2DEXT
00116d28 T glCompressedTextureSubImage3D
00135394 T glCompressedTextureSubImage3DEXT
0011c610 T glConvolutionFilter1D
00132a40 T glConvolutionFilter1DEXT
0011c6b0 T glConvolutionFilter2D
00132ae0 T glConvolutionFilter2DEXT
0011c750 T glConvolutionParameterf
00132b80 T glConvolutionParameterfEXT
0011c7e4 T glConvolutionParameterfv
00132c18 T glConvolutionParameterfvEXT
0011c87c T glConvolutionParameteri
00132cb0 T glConvolutionParameteriEXT
0011c914 T glConvolutionParameteriv
00132d48 T glConvolutionParameterivEXT
001160d4 T glCopyBufferSubData
0014afe4 T glCopyBufferSubDataNV
0011c9ac T glCopyColorSubTable
00132894 T glCopyColorSubTableEXT
0011ca48 T glCopyColorTable
00161d04 T glCopyColorTableSGI
0011cae8 T glCopyConvolutionFilter1D
00132de0 T glCopyConvolutionFilter1DEXT
0011cb88 T glCopyConvolutionFilter2D
00132e80 T glCopyConvolutionFilter2DEXT
00116174 T glCopyImageSubData
0014b084 T glCopyImageSubDataNV
00135434 T glCopyMultiTexImage1DEXT
001354d4 T glCopyMultiTexImage2DEXT
00135574 T glCopyMultiTexSubImage1DEXT
00135614 T glCopyMultiTexSubImage2DEXT
001356b4 T glCopyMultiTexSubImage3DEXT
00116dc8 T glCopyNamedBufferSubData
00150788 T glCopyPathNV
000fc148 T glCopyPixels
00105aa8 T glCopyTexImage1D
00133ea8 T glCopyTexImage1DEXT
00105b48 T glCopyTexImage2D
00133f48 T glCopyTexImage2DEXT
00105be8 T glCopyTexSubImage1D
00133fe8 T glCopyTexSubImage1DEXT
00105c88 T glCopyTexSubImage2D
00134088 T glCopyTexSubImage2DEXT
001069a8 T glCopyTexSubImage3D
00134128 T glCopyTexSubImage3DEXT
0015a660 T glCopyTexSubImage3DOES
00135754 T glCopyTextureImage1DEXT
001357f4 T glCopyTextureImage2DEXT
00112dc0 T glCopyTextureLevelsAPPLE
00116e68 T glCopyTextureSubImage1D
00135894 T glCopyTextureSubImage1DEXT
00116f04 T glCopyTextureSubImage2D
00135934 T glCopyTextureSubImage2DEXT
00116fa4 T glCopyTextureSubImage3D
001359d0 T glCopyTextureSubImage3DEXT
0014b124 T glCoverageMaskNV
0014b1ac T glCoverageOperationNV
00150818 T glCoverFillPathInstancedNV
001508b8 T glCoverFillPathNV
00150948 T glCoverStrokePathInstancedNV
001509e8 T glCoverStrokePathNV
004f3b64 T glcpp__create_buffer
004f4004 T glcpp__delete_buffer
004f4074 T glcpp__flush_buffer
004f4304 T glcpp__scan_buffer
004f43d4 T glcpp__scan_bytes
004f43ac T glcpp__scan_string
004f3ec0 T glcpp__switch_to_buffer
004f4000 T glcpp_alloc
004e4e94 T glcpp_error
004f4070 T glcpp_free
004f44f0 T glcpp_get_column
004f45c0 T glcpp_get_debug
004f44c0 T glcpp_get_extra
004f4518 T glcpp_get_in
004f4528 T glcpp_get_leng
004f44c8 T glcpp_get_lineno
004f45e0 T glcpp_get_lloc
004f45d0 T glcpp_get_lval
004f4520 T glcpp_get_out
004f4530 T glcpp_get_text
004f0dd0 T glcpp_lex
004f46dc T glcpp_lex_destroy
004f45f0 T glcpp_lex_init
004f4648 T glcpp_lex_init_extra
004f485c T glcpp_lex_set_source_string
004f716c T glcpp_parser_create
004f7d58 T glcpp_parser_destroy
004f4888 T glcpp_parser_parse
004f4254 T glcpp_pop_buffer_state
004e4ffc T glcpp_preprocess
004f40f4 T glcpp_push_buffer_state
004f4858 T glcpp_realloc
004f3cbc T glcpp_restart
004f4578 T glcpp_set_column
004f45c8 T glcpp_set_debug
004f4538 T glcpp_set_extra
004f45b0 T glcpp_set_in
004f4540 T glcpp_set_lineno
004f45e8 T glcpp_set_lloc
004f45d8 T glcpp_set_lval
004f45b8 T glcpp_set_out
004e4f4c T glcpp_warning
00117044 T glCreateBuffers
001170d4 T glCreateFramebuffers
0010ae4c T glCreateProgram
001240e8 T glCreateProgramObjectARB
00117160 T glCreateProgramPipelines
001171f0 T glCreateQueries
00117288 T glCreateRenderbuffers
00117318 T glCreateSamplers
0010aecc T glCreateShader
00124168 T glCreateShaderObjectARB
00143660 T glCreateShaderProgramEXT
00121a50 T glCreateShaderProgramv
001159a4 T glCreateSyncFromCLeventARB
001173a4 T glCreateTextures
0011743c T glCreateTransformFeedbacks
001174cc T glCreateVertexArrays
000fc1e4 T glCullFace
001341c4 T glCullParameterdvEXT
00134254 T glCullParameterfvEXT
0011dea4 T glCurrentPaletteMatrixARB
00159fdc T glCurrentPaletteMatrixOES
001486f4 T glDebugMessageCallback
00110fbc T glDebugMessageCallbackAMD
00116214 T glDebugMessageCallbackARB
00148784 T glDebugMessageControl
001162a4 T glDebugMessageControlARB
0011104c T glDebugMessageEnableAMD
00148834 T glDebugMessageInsert
001110f8 T glDebugMessageInsertAMD
00116350 T glDebugMessageInsertARB
00161634 T glDeformationMap3dSGIX
001616cc T glDeformationMap3fSGIX
001615ac T glDeformSGIX
0015ff1c T glDeleteAsyncMarkersSGIX
001494bc T glDeleteBufferRegion
0010a388 T glDeleteBuffers
0012a138 T glDeleteBuffersARB
00113164 T glDeleteFencesAPPLE
0014bca0 T glDeleteFencesNV
0012fa08 T glDeleteFragmentShaderATI
0011a9d0 T glDeleteFramebuffers
0013ef74 T glDeleteFramebuffersEXT
001595f0 T glDeleteFramebuffersOES
000fc268 T glDeleteLists
00125df8 T glDeleteNamedStringARB
00111828 T glDeleteNamesAMD
001241f4 T glDeleteObjectARB
00150250 T glDeleteOcclusionQueriesNV
00150a78 T glDeletePathsNV
00111a70 T glDeletePerfMonitorsAMD
0010af54 T glDeleteProgram
00121aec T glDeleteProgramPipelines
0012a660 T glDeleteProgramsARB
00156698 T glDeleteProgramsNV
0010a414 T glDeleteQueries
00112770 T glDeleteQueriesANGLE
0011fb08 T glDeleteQueriesARB
00141dc8 T glDeleteQueriesEXT
0011aa60 T glDeleteRenderbuffers
0013f004 T glDeleteRenderbuffersEXT
00159680 T glDeleteRenderbuffersOES
001211a0 T glDeleteSamplers
0010afdc T glDeleteShader
001263d8 T glDeleteSync
00113bf8 T glDeleteSyncAPPLE
00105d24 T glDeleteTextures
00144244 T glDeleteTexturesEXT
00127b5c T glDeleteTransformFeedbacks
00154960 T glDeleteTransformFeedbacksNV
00128ae4 T glDeleteVertexArrays
00114120 T glDeleteVertexArraysAPPLE
0015aebc T glDeleteVertexArraysOES
00145bf8 T glDeleteVertexShaderEXT
0014b2c4 T glDepthBoundsdNV
00134a64 T glDepthBoundsEXT
000fc2f4 T glDepthFunc
000fc378 T glDepthMask
000fc3fc T glDepthRange
0012e1d8 T glDepthRangeArrayv
0014b364 T glDepthRangedNV
00114928 T glDepthRangef
0015a2c0 T glDepthRangefOES
0012e270 T glDepthRangeIndexed
0015c05c T glDepthRangex
0012427c T glDetachObjectARB
0010b064 T glDetachShader
0015f280 T glDetailTexFuncSGIS
000fc498 T glDisable
00105db4 T glDisableClientState
00135b00 T glDisableClientStateiEXT
00135a70 T glDisableClientStateIndexedEXT
0015b188 T glDisableDriverControlQCOM
0010eaf4 T glDisablei
0013da8c T glDisableIndexedEXT
00145c80 T glDisableVariantClientStateEXT
0011755c T glDisableVertexArrayAttrib
00135b90 T glDisableVertexArrayAttribEXT
00135c20 T glDisableVertexArrayEXT
00114474 T glDisableVertexAttribAPPLE
0010b0f4 T glDisableVertexAttribArray
0012a6f0 T glDisableVertexAttribArrayARB
0013d824 T glDiscardFramebufferEXT
00115f18 T glDispatchCompute
00116038 T glDispatchComputeGroupSizeARB
00115fb0 T glDispatchComputeIndirect
00105e3c T glDrawArrays
00144d60 T glDrawArraysEXT
00110d88 T glDrawArraysIndirect
00110674 T glDrawArraysInstanced
00112514 T glDrawArraysInstancedANGLE
0011a3ec T glDrawArraysInstancedARB
00114bf8 T glDrawArraysInstancedBaseInstance
0013dd70 T glDrawArraysInstancedEXT
000fc73c T glDrawBuffer
00149544 T glDrawBufferRegion
0010b178 T glDrawBuffers
00119e88 T glDrawBuffersARB
0012f0b8 T glDrawBuffersATI
00141b78 T glDrawBuffersIndexedEXT
0014b404 T glDrawBuffersNV
00112e60 T glDrawElementArrayAPPLE
0012f148 T glDrawElementArrayATI
00105ed4 T glDrawElements
0011a170 T glDrawElementsBaseVertex
00110e18 T glDrawElementsIndirect
00110714 T glDrawElementsInstanced
001125b4 T glDrawElementsInstancedANGLE
0011a48c T glDrawElementsInstancedARB
00114c98 T glDrawElementsInstancedBaseInstance
0011a210 T glDrawElementsInstancedBaseVertex
00114d38 T glDrawElementsInstancedBaseVertexBaseInstance
0013de10 T glDrawElementsInstancedEXT
00162434 T glDrawMeshArraysSUN
000fc7c0 T glDrawPixels
00112ef8 T glDrawRangeElementArrayAPPLE
0012f1d8 T glDrawRangeElementArrayATI
00106a48 T glDrawRangeElements
0011a2b0 T glDrawRangeElementsBaseVertex
0013deb0 T glDrawRangeElementsEXT
0014b494 T glDrawTextureNV
00127bec T glDrawTransformFeedback
001280ec T glDrawTransformFeedbackInstanced
001549f0 T glDrawTransformFeedbackNV
00127f24 T glDrawTransformFeedbackStream
00128184 T glDrawTransformFeedbackStreamInstanced
000fc85c T glEdgeFlag
00155f98 T glEdgeFlagFormatNV
00105f70 T glEdgeFlagPointer
00144df8 T glEdgeFlagPointerEXT
00147b00 T glEdgeFlagPointerListIBM
000fc8e0 T glEdgeFlagv
00112f98 T glElementPointerAPPLE
0012f278 T glElementPointerATI
000fc964 T glEnable
00106000 T glEnableClientState
00135d40 T glEnableClientStateiEXT
00135cb0 T glEnableClientStateIndexedEXT
0015b210 T glEnableDriverControlQCOM
0010eb84 T glEnablei
0013db1c T glEnableIndexedEXT
00145d08 T glEnableVariantClientStateEXT
001175e8 T glEnableVertexArrayAttrib
00135dd0 T glEnableVertexArrayAttribEXT
00135e60 T glEnableVertexArrayEXT
00114504 T glEnableVertexAttribAPPLE
0010b208 T glEnableVertexAttribArray
0012a778 T glEnableVertexAttribArrayARB
000fcc08 T glEnd
0010ec10 T glEndConditionalRender
0014af68 T glEndConditionalRenderNV
0014a5a4 T glEndConditionalRenderNVX
0012fa90 T glEndFragmentShaderATI
000fcc98 T glEndList
001502e0 T glEndOcclusionQueryNV
00111afc T glEndPerfMonitorAMD
0010a4a4 T glEndQuery
00112800 T glEndQueryANGLE
0011fb94 T glEndQueryARB
00141e58 T glEndQueryEXT
00127fbc T glEndQueryIndexed
00142bbc T glEndSceneEXT
0015baf0 T glEndTilingQCOM
0010ec8c T glEndTransformFeedback
00144a7c T glEndTransformFeedbackEXT
00154550 T glEndTransformFeedbackNV
00145d90 T glEndVertexShaderEXT
00158d14 T glEndVideoCaptureNV
0015ef1c T glErrorStringREGAL
000fcd28 T glEvalCoord1d
000fcdb4 T glEvalCoord1dv
000fce38 T glEvalCoord1f
000fcebc T glEvalCoord1fv
000fcf40 T glEvalCoord2d
000fcfdc T glEvalCoord2dv
000fd060 T glEvalCoord2f
000fd0ec T glEvalCoord2fv
0014b534 T glEvalMapsNV
000fd170 T glEvalMesh1
000fd204 T glEvalMesh2
000fd2a0 T glEvalPoint1
000fd324 T glEvalPoint2
00156728 T glExecuteProgramNV
0015b3d0 T glExtGetBufferPointervQCOM
0015b460 T glExtGetBuffersQCOM
0015b4f8 T glExtGetFramebuffersQCOM
0015b894 T glExtGetProgramBinarySourceQCOM
0015b934 T glExtGetProgramsQCOM
0015b58c T glExtGetRenderbuffersQCOM
0015b9cc T glExtGetShadersQCOM
0015b624 T glExtGetTexLevelParameterivQCOM
0015b6c4 T glExtGetTexSubImageQCOM
0015b764 T glExtGetTexturesQCOM
0015ba64 T glExtIsProgramBinaryQCOM
00145e0c T glExtractComponentEXT
0015b7fc T glExtTexObjectStateOverrideiQCOM
000fd3b0 T glFeedbackBuffer
00126460 T glFenceSync
00113c80 T glFenceSyncAPPLE
00152fdc T glFinalCombinerInputNV
000fd444 T glFinish
0015ffac T glFinishAsyncSGIX
001131f4 T glFinishFenceAPPLE
0014bd30 T glFinishFenceNV
00113278 T glFinishObjectAPPLE
001136f4 T glFinishRenderAPPLE
00161f74 T glFinishTextureSUNX
000fd4f4 T glFlush
0011dd68 T glFlushMappedBufferRange
00113660 T glFlushMappedBufferRangeAPPLE
00141748 T glFlushMappedBufferRangeEXT
00117678 T glFlushMappedNamedBufferRange
00135ef0 T glFlushMappedNamedBufferRangeEXT
001524d4 T glFlushPixelDataRangeNV
001601d8 T glFlushRasterSGIX
00113770 T glFlushRenderAPPLE
001142c8 T glFlushVertexArrayRangeAPPLE
00155248 T glFlushVertexArrayRangeNV
0010890c T glFogCoordd
0013dfe8 T glFogCoorddEXT
0010899c T glFogCoorddv
0013e078 T glFogCoorddvEXT
00108a24 T glFogCoordf
0013e100 T glFogCoordfEXT
00156020 T glFogCoordFormatNV
00108aac T glFogCoordfv
0013e188 T glFogCoordfvEXT
0014e620 T glFogCoordhNV
0014e6a4 T glFogCoordhvNV
00108878 T glFogCoordPointer
0013df50 T glFogCoordPointerEXT
00147b98 T glFogCoordPointerListIBM
000fd56c T glFogf
0015f3a8 T glFogFuncSGIS
000fd5f8 T glFogfv
000fd684 T glFogi
000fd710 T glFogiv
0015c168 T glFogx
0015c260 T glFogxv
0013e210 T glFragmentColorMaterialEXT
001602dc T glFragmentColorMaterialSGIX
0013e4dc T glFragmentLightfEXT
001605ac T glFragmentLightfSGIX
0013e574 T glFragmentLightfvEXT
00160644 T glFragmentLightfvSGIX
0013e60c T glFragmentLightiEXT
001606dc T glFragmentLightiSGIX
0013e6a4 T glFragmentLightivEXT
00160774 T glFragmentLightivSGIX
0013e29c T glFragmentLightModelfEXT
0016036c T glFragmentLightModelfSGIX
0013e32c T glFragmentLightModelfvEXT
001603fc T glFragmentLightModelfvSGIX
0013e3bc T glFragmentLightModeliEXT
0016048c T glFragmentLightModeliSGIX
0013e44c T glFragmentLightModelivEXT
0016051c T glFragmentLightModelivSGIX
0013e73c T glFragmentMaterialfEXT
0016080c T glFragmentMaterialfSGIX
0013e7d4 T glFragmentMaterialfvEXT
001608a4 T glFragmentMaterialfvSGIX
0013e86c T glFragmentMaterialiEXT
00160938 T glFragmentMaterialiSGIX
0013e904 T glFragmentMaterialivEXT
001609d0 T glFragmentMaterialivSGIX
00135f88 T glFramebufferDrawBufferEXT
00136018 T glFramebufferDrawBuffersEXT
0011a52c T glFramebufferParameteri
001360b0 T glFramebufferReadBufferEXT
0011aaec T glFramebufferRenderbuffer
0013f094 T glFramebufferRenderbufferEXT
00159710 T glFramebufferRenderbufferOES
001108d0 T glFramebufferTexture
0011ab8c T glFramebufferTexture1D
0013f134 T glFramebufferTexture1DEXT
0011ac2c T glFramebufferTexture2D
0013f1d4 T glFramebufferTexture2DEXT
00141ad8 T glFramebufferTexture2DMultisampleEXT
00147f58 T glFramebufferTexture2DMultisampleIMG
001597b0 T glFramebufferTexture2DOES
0011accc T glFramebufferTexture3D
0013f274 T glFramebufferTexture3DEXT
0015a700 T glFramebufferTexture3DOES
0011b338 T glFramebufferTextureARB
0013f7a8 T glFramebufferTextureEXT
0011b3d8 T glFramebufferTextureFaceARB
0013f848 T glFramebufferTextureFaceEXT
0011ad68 T glFramebufferTextureLayer
0011b474 T glFramebufferTextureLayerARB
00143c44 T glFramebufferTextureLayerEXT
0014729c T glFrameTerminatorGREMEDY
00160d58 T glFrameZoomSGIX
00130168 T glFreeObjectBufferATI
000fd79c T glFrontFace
000fd820 T glFrustum
0015c39c T glFrustumf
0015a350 T glFrustumfOES
0015c4c8 T glFrustumx
00160034 T glGenAsyncMarkersSGIX
0010a52c T glGenBuffers
0012a1c8 T glGenBuffersARB
0011af28 T glGenerateMipmap
0013f434 T glGenerateMipmapEXT
0015996c T glGenerateMipmapOES
00136140 T glGenerateMultiTexMipmapEXT
00117710 T glGenerateTextureMipmap
001361d0 T glGenerateTextureMipmapEXT
00113308 T glGenFencesAPPLE
0014bdb8 T glGenFencesNV
0012fb0c T glGenFragmentShadersATI
0011ae08 T glGenFramebuffers
0013f314 T glGenFramebuffersEXT
00159850 T glGenFramebuffersOES
000fd8bc T glGenLists
001118bc T glGenNamesAMD
0015035c T glGenOcclusionQueriesNV
00150b08 T glGenPathsNV
00111b84 T glGenPerfMonitorsAMD
00121b7c T glGenProgramPipelines
0012a800 T glGenProgramsARB
001567c0 T glGenProgramsNV
0010a5bc T glGenQueries
00112888 T glGenQueriesANGLE
0011fc1c T glGenQueriesARB
00141ee0 T glGenQueriesEXT
0011ae98 T glGenRenderbuffers
0013f3a4 T glGenRenderbuffersEXT
001598e0 T glGenRenderbuffersOES
00121230 T glGenSamplers
00145ea4 T glGenSymbolsEXT
00106088 T glGenTextures
001442d4 T glGenTexturesEXT
00127c7c T glGenTransformFeedbacks
00154a80 T glGenTransformFeedbacksNV
00128b74 T glGenVertexArrays
001141b0 T glGenVertexArraysAPPLE
0015af4c T glGenVertexArraysOES
00145f48 T glGenVertexShadersEXT
00123e08 T glGetActiveAtomicCounterBufferiv
0010b290 T glGetActiveAttrib
0012ca8c T glGetActiveAttribARB
00125740 T glGetActiveSubroutineName
00125880 T glGetActiveSubroutineUniformiv
001257e0 T glGetActiveSubroutineUniformName
0010b330 T glGetActiveUniform
0012430c T glGetActiveUniformARB
0012861c T glGetActiveUniformBlockiv
0012857c T glGetActiveUniformBlockName
001286bc T glGetActiveUniformName
00128758 T glGetActiveUniformsiv
001545cc T glGetActiveVaryingNV
001301f0 T glGetArrayObjectfvATI
00130288 T glGetArrayObjectivATI
001243a8 T glGetAttachedObjectsARB
0010b3cc T glGetAttachedShaders
0010b46c T glGetAttribLocation
0012cb2c T glGetAttribLocationARB
0010ed08 T glGetBooleani_v
0013dbac T glGetBooleanIndexedvEXT
000fd944 T glGetBooleanv
00110970 T glGetBufferParameteri64v
0010a648 T glGetBufferParameteriv
0012a258 T glGetBufferParameterivARB
00153558 T glGetBufferParameterui64vNV
0010a6e0 T glGetBufferPointerv
0012a2f0 T glGetBufferPointervARB
00159e24 T glGetBufferPointervOES
0010a778 T glGetBufferSubData
0012a384 T glGetBufferSubDataARB
000fd9f0 T glGetClipPlane
0015e204 T glGetClipPlanef
0015a3f0 T glGetClipPlanefOES
0015e338 T glGetClipPlanex
0011cc28 T glGetColorTable
001421cc T glGetColorTableEXT
0011ccc4 T glGetColorTableParameterfv
0014226c T glGetColorTableParameterfvEXT
00161da4 T glGetColorTableParameterfvSGI
0011cd5c T glGetColorTableParameteriv
00142304 T glGetColorTableParameterivEXT
00161e3c T glGetColorTableParameterivSGI
00161ed4 T glGetColorTableSGI
0015307c T glGetCombinerInputParameterfvNV
0015311c T glGetCombinerInputParameterivNV
001531b8 T glGetCombinerOutputParameterfvNV
00153258 T glGetCombinerOutputParameterivNV
001534c0 T glGetCombinerStageParameterfvNV
00136260 T glGetCompressedMultiTexImageEXT
001070ec T glGetCompressedTexImage
00126e9c T glGetCompressedTexImageARB
00117798 T glGetCompressedTextureImage
001362fc T glGetCompressedTextureImageEXT
0011b780 T glGetCompressedTextureSubImage
0011cdf4 T glGetConvolutionFilter
00132f1c T glGetConvolutionFilterEXT
0011ce94 T glGetConvolutionParameterfv
00132fbc T glGetConvolutionParameterfvEXT
0011cf28 T glGetConvolutionParameteriv
00133054 T glGetConvolutionParameterivEXT
00148a84 T glGetDebugMessageLog
00111354 T glGetDebugMessageLogAMD
001165cc T glGetDebugMessageLogARB
0015f318 T glGetDetailTexFuncSGIS
0012e308 T glGetDoublei_v
00136434 T glGetDoublei_vEXT
0013639c T glGetDoubleIndexedvEXT
000fda7c T glGetDoublev
0015b338 T glGetDriverControlsQCOM
0015b298 T glGetDriverControlStringQCOM
000fdb28 T glGetError
0015ef94 T glGetExtensionREGAL
0014be48 T glGetFenceivNV
001532f8 T glGetFinalCombinerInputParameterfvNV
00153390 T glGetFinalCombinerInputParameterivNV
0015e490 T glGetFixedv
0012e3a0 T glGetFloati_v
00136564 T glGetFloati_vEXT
001364cc T glGetFloatIndexedvEXT
000fdba4 T glGetFloatv
0015f438 T glGetFogFuncSGIS
001157d4 T glGetFragDataIndex
0010eda0 T glGetFragDataLocation
0013fb58 T glGetFragDataLocationEXT
0013e99c T glGetFragmentLightfvEXT
00160a68 T glGetFragmentLightfvSGIX
0013ea34 T glGetFragmentLightivEXT
00160b00 T glGetFragmentLightivSGIX
0013eacc T glGetFragmentMaterialfvEXT
00160b98 T glGetFragmentMaterialfvSGIX
0013eb64 T glGetFragmentMaterialivEXT
00160c30 T glGetFragmentMaterialivSGIX
0011afac T glGetFramebufferAttachmentParameteriv
0013f4bc T glGetFramebufferAttachmentParameterivEXT
001599f4 T glGetFramebufferAttachmentParameterivOES
0011a5c4 T glGetFramebufferParameteriv
001365fc T glGetFramebufferParameterivEXT
00120454 T glGetGraphicsResetStatusARB
00124448 T glGetHandleARB
0011cfc0 T glGetHistogram
00140ea4 T glGetHistogramEXT
0011d060 T glGetHistogramParameterfv
00140f44 T glGetHistogramParameterfvEXT
0011d0f8 T glGetHistogramParameteriv
00140fdc T glGetHistogramParameterivEXT
00114dd4 T glGetImageHandleARB
0014a620 T glGetImageHandleNV
00147594 T glGetImageTransformParameterfvHP
0014762c T glGetImageTransformParameterivHP
001244d4 T glGetInfoLogARB
00160e70 T glGetInstrumentsSGIX
00110a08 T glGetInteger64i_v
001264f4 T glGetInteger64v
00113d14 T glGetInteger64vAPPLE
001287f8 T glGetIntegeri_v
00141c10 T glGetIntegeri_vEXT
0013dc44 T glGetIntegerIndexedvEXT
001560ac T glGetIntegerui64i_vNV
001535f0 T glGetIntegerui64vNV
000fdc50 T glGetIntegerv
0011d948 T glGetInternalformati64v
0011d8a8 T glGetInternalformativ
00145fd4 T glGetInvariantBooleanvEXT
0014606c T glGetInvariantFloatvEXT
00146104 T glGetInvariantIntegervEXT
000fdcf4 T glGetLightfv
000fdd88 T glGetLightiv
0015e5f0 T glGetLightxv
00161198 T glGetListParameterfvSGIX
0016122c T glGetListParameterivSGIX
0014619c T glGetLocalConstantBooleanvEXT
00146234 T glGetLocalConstantFloatvEXT
001462cc T glGetLocalConstantIntegervEXT
0014b5c4 T glGetMapAttribParameterfvNV
0014b660 T glGetMapAttribParameterivNV
0014b700 T glGetMapControlPointsNV
000fde1c T glGetMapdv
000fdeb0 T glGetMapfv
000fdf44 T glGetMapiv
0014b7bc T glGetMapParameterfvNV
0014b854 T glGetMapParameterivNV
000fdfd8 T glGetMaterialfv
000fe06c T glGetMaterialiv
0015e734 T glGetMaterialxv
0011d18c T glGetMinmax
00141074 T glGetMinmaxEXT
0011d22c T glGetMinmaxParameterfv
00141114 T glGetMinmaxParameterfvEXT
0011d2c4 T glGetMinmaxParameteriv
001411a8 T glGetMinmaxParameterivEXT
00126f34 T glGetMultisamplefv
0014bae8 T glGetMultisamplefvNV
00136694 T glGetMultiTexEnvfvEXT
00136734 T glGetMultiTexEnvivEXT
001367d4 T glGetMultiTexGendvEXT
00136874 T glGetMultiTexGenfvEXT
00136914 T glGetMultiTexGenivEXT
001369b4 T glGetMultiTexImageEXT
00136a54 T glGetMultiTexLevelParameterfvEXT
00136af4 T glGetMultiTexLevelParameterivEXT
00136cd0 T glGetMultiTexParameterfvEXT
00136b94 T glGetMultiTexParameterIivEXT
00136c34 T glGetMultiTexParameterIuivEXT
00136d70 T glGetMultiTexParameterivEXT
00117834 T glGetNamedBufferParameteri64v
001178cc T glGetNamedBufferParameteriv
00136e10 T glGetNamedBufferParameterivEXT
00153680 T glGetNamedBufferParameterui64vNV
00117964 T glGetNamedBufferPointerv
00136ea8 T glGetNamedBufferPointervEXT
001179fc T glGetNamedBufferSubData
00136f40 T glGetNamedBufferSubDataEXT
00117a98 T glGetNamedFramebufferAttachmentParameteriv
00136fe0 T glGetNamedFramebufferAttachmentParameterivEXT
00117b38 T glGetNamedFramebufferParameteriv
0011a658 T glGetNamedFramebufferParameterivEXT
001373a0 T glGetNamedProgramivEXT
001371c0 T glGetNamedProgramLocalParameterdvEXT
00137260 T glGetNamedProgramLocalParameterfvEXT
00137080 T glGetNamedProgramLocalParameterIivEXT
00137120 T glGetNamedProgramLocalParameterIuivEXT
00137300 T glGetNamedProgramStringEXT
00117bd0 T glGetNamedRenderbufferParameteriv
00137440 T glGetNamedRenderbufferParameterivEXT
00125e88 T glGetNamedStringARB
00125f28 T glGetNamedStringivARB
001204d4 T glGetnColorTableARB
00120574 T glGetnCompressedTexImageARB
00120614 T glGetnConvolutionFilterARB
001206b4 T glGetnHistogramARB
00120754 T glGetnMapdvARB
001207f4 T glGetnMapfvARB
00120894 T glGetnMapivARB
00120934 T glGetnMinmaxARB
001209d0 T glGetnPixelMapfvARB
00120a68 T glGetnPixelMapuivARB
00120b00 T glGetnPixelMapusvARB
00120b98 T glGetnPolygonStippleARB
00120c28 T glGetnSeparableFilterARB
00120cc8 T glGetnTexImageARB
00120d68 T glGetnUniformdvARB
001491bc T glGetnUniformfv
00120e08 T glGetnUniformfvARB
00142960 T glGetnUniformfvEXT
0014925c T glGetnUniformiv
00120ea8 T glGetnUniformivARB
00142a00 T glGetnUniformivEXT
001492fc T glGetnUniformuiv
00120f48 T glGetnUniformuivARB
00130320 T glGetObjectBufferfvATI
001303b8 T glGetObjectBufferivATI
00148b28 T glGetObjectLabel
001342e4 T glGetObjectLabelEXT
00124574 T glGetObjectParameterfvARB
00113980 T glGetObjectParameterivAPPLE
0012460c T glGetObjectParameterivARB
00148bc8 T glGetObjectPtrLabel
001503ec T glGetOcclusionQueryivNV
00150484 T glGetOcclusionQueryuivNV
00150b90 T glGetPathColorGenfvNV
00150c28 T glGetPathColorGenivNV
00150cc0 T glGetPathCommandsNV
00150d50 T glGetPathCoordsNV
00150de0 T glGetPathDashArrayNV
00150e70 T glGetPathLengthNV
00150f0c T glGetPathMetricRangeNV
00150fac T glGetPathMetricsNV
0015104c T glGetPathParameterfvNV
001510e4 T glGetPathParameterivNV
0015117c T glGetPathSpacingNV
0015121c T glGetPathTexGenfvNV
001512b4 T glGetPathTexGenivNV
00111c14 T glGetPerfMonitorCounterDataAMD
00111cb4 T glGetPerfMonitorCounterInfoAMD
00111df0 T glGetPerfMonitorCountersAMD
00111d50 T glGetPerfMonitorCounterStringAMD
00111f30 T glGetPerfMonitorGroupsAMD
00111e90 T glGetPerfMonitorGroupStringAMD
000fe100 T glGetPixelMapfv
000fe18c T glGetPixelMapuiv
000fe218 T glGetPixelMapusv
0015f5d8 T glGetPixelTexGenParameterfvSGIS
0015f668 T glGetPixelTexGenParameterivSGIS
0014239c T glGetPixelTransformParameterfvEXT
00142430 T glGetPixelTransformParameterivEXT
00137570 T glGetPointeri_vEXT
001374d8 T glGetPointerIndexedvEXT
00106118 T glGetPointerv
00144e90 T glGetPointervEXT
000fe2a4 T glGetPolygonStipple
0015f148 T glGetProcAddressREGAL
0011b5ac T glGetProgramBinary
00159ce4 T glGetProgramBinaryOES
0012a890 T glGetProgramEnvParameterdvARB
0012a928 T glGetProgramEnvParameterfvARB
0014c60c T glGetProgramEnvParameterIivNV
0014c6a4 T glGetProgramEnvParameterIuivNV
0010b500 T glGetProgramInfoLog
00120018 T glGetProgramInterfaceiv
0010b5a0 T glGetProgramiv
0012ab88 T glGetProgramivARB
00156a24 T glGetProgramivNV
0012a9c0 T glGetProgramLocalParameterdvARB
0012aa58 T glGetProgramLocalParameterfvARB
0014c73c T glGetProgramLocalParameterIivNV
0014c7d4 T glGetProgramLocalParameterIuivNV
0014c084 T glGetProgramNamedParameterdvNV
0014c124 T glGetProgramNamedParameterfvNV
00156850 T glGetProgramParameterdvNV
001568f0 T glGetProgramParameterfvNV
00121c0c T glGetProgramPipelineInfoLog
00121ca8 T glGetProgramPipelineiv
001200b8 T glGetProgramResourceIndex
0012032c T glGetProgramResourceiv
00120154 T glGetProgramResourceLocation
001201f0 T glGetProgramResourceLocationIndex
0012028c T glGetProgramResourceName
00125920 T glGetProgramStageiv
0012aaf0 T glGetProgramStringARB
00156990 T glGetProgramStringNV
001259c0 T glGetProgramSubroutineParameteruivNV
0012804c T glGetQueryIndexediv
0010a944 T glGetQueryiv
00112b70 T glGetQueryivANGLE
0011fdd8 T glGetQueryivARB
00142008 T glGetQueryivEXT
0012790c T glGetQueryObjecti64v
00112914 T glGetQueryObjecti64vANGLE
001446f0 T glGetQueryObjecti64vEXT
0010a818 T glGetQueryObjectiv
001129ac T glGetQueryObjectivANGLE
0011fcac T glGetQueryObjectivARB
0013d8bc T glGetQueryObjectivEXT
001279a4 T glGetQueryObjectui64v
00112a44 T glGetQueryObjectui64vANGLE
00144788 T glGetQueryObjectui64vEXT
0010a8ac T glGetQueryObjectuiv
00112adc T glGetQueryObjectuivANGLE
0011fd44 T glGetQueryObjectuivARB
00141f70 T glGetQueryObjectuivEXT
0011b04c T glGetRenderbufferParameteriv
0013f558 T glGetRenderbufferParameterivEXT
00159a94 T glGetRenderbufferParameterivOES
001213ec T glGetSamplerParameterfv
001212c0 T glGetSamplerParameterIiv
00121354 T glGetSamplerParameterIuiv
00121484 T glGetSamplerParameteriv
0011d35c T glGetSeparableFilter
001330ec T glGetSeparableFilterEXT
0010b634 T glGetShaderInfoLog
0010b774 T glGetShaderiv
001149b8 T glGetShaderPrecisionFormat
0010b6d4 T glGetShaderSource
001246a4 T glGetShaderSourceARB
0015fa54 T glGetSharpenTexFuncSGIS
000fe328 T glGetString
0010ee30 T glGetStringi
00125a58 T glGetSubroutineIndex
00125af4 T glGetSubroutineUniformLocation
001265a0 T glGetSynciv
00113da0 T glGetSyncivAPPLE
0012f308 T glGetTexBumpParameterfvATI
0012f398 T glGetTexBumpParameterivATI
000fe454 T glGetTexEnvfv
000fe4e8 T glGetTexEnviv
0015e878 T glGetTexEnvxv
0015fd5c T glGetTexFilterFuncSGIS
000fe57c T glGetTexGendv
000fe610 T glGetTexGenfv
0015a8e0 T glGetTexGenfvOES
000fe6a4 T glGetTexGeniv
0015a978 T glGetTexGenivOES
0015aa10 T glGetTexGenxvOES
000fe738 T glGetTexImage
000fe7d4 T glGetTexLevelParameterfv
000fe870 T glGetTexLevelParameteriv
000fe90c T glGetTexParameterfv
0010efa8 T glGetTexParameterIiv
00143ebc T glGetTexParameterIivEXT
0010f040 T glGetTexParameterIuiv
00143f54 T glGetTexParameterIuivEXT
000fe9a0 T glGetTexParameteriv
00113f6c T glGetTexParameterPointervAPPLE
0015e9c0 T glGetTexParameterxv
00114e7c T glGetTextureHandleARB
0014a6c8 T glGetTextureHandleNV
00117c68 T glGetTextureImage
00137608 T glGetTextureImageEXT
00117d04 T glGetTextureLevelParameterfv
001376a4 T glGetTextureLevelParameterfvEXT
00117da4 T glGetTextureLevelParameteriv
00137744 T glGetTextureLevelParameterivEXT
00117f70 T glGetTextureParameterfv
00137924 T glGetTextureParameterfvEXT
00117e44 T glGetTextureParameterIiv
001377e4 T glGetTextureParameterIivEXT
00117edc T glGetTextureParameterIuiv
00137884 T glGetTextureParameterIuivEXT
00118008 T glGetTextureParameteriv
001379c4 T glGetTextureParameterivEXT
00114f0c T glGetTextureSamplerHandleARB
0014a758 T glGetTextureSamplerHandleNV
0011b820 T glGetTextureSubImage
00156abc T glGetTrackMatrixivNV
00118140 T glGetTransformFeedbacki_v
001180a0 T glGetTransformFeedbacki64_v
001181dc T glGetTransformFeedbackiv
0010f0d8 T glGetTransformFeedbackVarying
00144af8 T glGetTransformFeedbackVaryingEXT
0015466c T glGetTransformFeedbackVaryingNV
00112d24 T glGetTranslatedShaderSourceANGLE
00128890 T glGetUniformBlockIndex
001323e0 T glGetUniformBufferSizeEXT
0011b8c0 T glGetUniformdv
0010b89c T glGetUniformfv
001247d8 T glGetUniformfvARB
0014cfc8 T glGetUniformi64vNV
00128924 T glGetUniformIndices
0010b934 T glGetUniformiv
00124870 T glGetUniformivARB
0010b80c T glGetUniformLocation
00124744 T glGetUniformLocationARB
00132474 T glGetUniformOffsetEXT
00125b90 T glGetUniformSubroutineuiv
00153718 T glGetUniformui64vNV
0010f174 T glGetUniformuiv
0013fbec T glGetUniformuivEXT
00130450 T glGetVariantArrayObjectfvATI
001304e8 T glGetVariantArrayObjectivATI
00146364 T glGetVariantBooleanvEXT
001463fc T glGetVariantFloatvEXT
00146494 T glGetVariantIntegervEXT
00146528 T glGetVariantPointervEXT
00154704 T glGetVaryingLocationNV
00118274 T glGetVertexArrayIndexed64iv
00118314 T glGetVertexArrayIndexediv
00137a64 T glGetVertexArrayIntegeri_vEXT
00137b04 T glGetVertexArrayIntegervEXT
001183b4 T glGetVertexArrayiv
00137b9c T glGetVertexArrayPointeri_vEXT
00137c3c T glGetVertexArrayPointervEXT
001307e8 T glGetVertexAttribArrayObjectfvATI
00130880 T glGetVertexAttribArrayObjectivATI
0010ba64 T glGetVertexAttribdv
0012acb4 T glGetVertexAttribdvARB
00156bf4 T glGetVertexAttribdvNV
0010baf8 T glGetVertexAttribfv
0012ad4c T glGetVertexAttribfvARB
00156c8c T glGetVertexAttribfvNV
0010f20c T glGetVertexAttribIiv
0013fc84 T glGetVertexAttribIivEXT
0010f2a4 T glGetVertexAttribIuiv
0013fd1c T glGetVertexAttribIuivEXT
0010bb90 T glGetVertexAttribiv
0012ade4 T glGetVertexAttribivARB
00156d24 T glGetVertexAttribivNV
00128c90 T glGetVertexAttribLdv
001451a0 T glGetVertexAttribLdvEXT
00155354 T glGetVertexAttribLi64vNV
00114fa4 T glGetVertexAttribLui64vARB
001553ec T glGetVertexAttribLui64vNV
0010b9cc T glGetVertexAttribPointerv
0012ac20 T glGetVertexAttribPointervARB
00156b5c T glGetVertexAttribPointervNV
00158f7c T glGetVideoCaptureivNV
00158d9c T glGetVideoCaptureStreamdvNV
00158e3c T glGetVideoCaptureStreamfvNV
00158edc T glGetVideoCaptureStreamivNV
00152714 T glGetVideoi64vNV
001527ac T glGetVideoivNV
00152840 T glGetVideoui64vNV
001528d8 T glGetVideouivNV
00161ff0 T glGlobalAlphaFactorbSUN
00162078 T glGlobalAlphaFactordSUN
00162108 T glGlobalAlphaFactorfSUN
00162190 T glGlobalAlphaFactoriSUN
00162218 T glGlobalAlphaFactorsSUN
001622a0 T glGlobalAlphaFactorubSUN
00162328 T glGlobalAlphaFactoruiSUN
001623b0 T glGlobalAlphaFactorusSUN
000fea34 T glHint
0015b068 T glHintPGI
0011d3f8 T glHistogram
00141240 T glHistogramEXT
00160de0 T glIglooInterfaceSGIX
001476c4 T glImageTransformParameterfHP
0014775c T glImageTransformParameterfvHP
001477f4 T glImageTransformParameteriHP
0014788c T glImageTransformParameterivHP
00147200 T glImportSyncEXT
000feb44 T glIndexd
000febd0 T glIndexdv
000fec54 T glIndexf
00156144 T glIndexFormatNV
00141488 T glIndexFuncEXT
000fecd8 T glIndexfv
000fed5c T glIndexi
000fede0 T glIndexiv
000feac0 T glIndexMask
00141518 T glIndexMaterialEXT
001061a4 T glIndexPointer
00144f20 T glIndexPointerEXT
00147c38 T glIndexPointerListIBM
000fee64 T glIndexs
000feee8 T glIndexsv
0010623c T glIndexub
001062c4 T glIndexubv
000fef6c T glInitNames
001465c0 T glInsertComponentEXT
00134424 T glInsertEventMarkerEXT
00160ef0 T glInstrumentsBufferSGIX
0010634c T glInterleavedArrays
0015134c T glInterpolatePathsNV
0011d9e8 T glInvalidateBufferData
0011da70 T glInvalidateBufferSubData
0011db04 T glInvalidateFramebuffer
00118448 T glInvalidateNamedFramebufferData
001184e0 T glInvalidateNamedFramebufferSubData
0011db9c T glInvalidateSubFramebuffer
0011dc3c T glInvalidateTexImage
0011dccc T glInvalidateTexSubImage
001600c0 T glIsAsyncMarkerSGIX
0010a9dc T glIsBuffer
0012a424 T glIsBufferARB
001537b0 T glIsBufferResidentNV
000fefe4 T glIsEnabled
0010f33c T glIsEnabledi
0013dcdc T glIsEnabledIndexedEXT
00113398 T glIsFenceAPPLE
0014bee0 T glIsFenceNV
0011b0e4 T glIsFramebuffer
0013f5f0 T glIsFramebufferEXT
00159b2c T glIsFramebufferOES
00115038 T glIsImageHandleResidentARB
0014a7f0 T glIsImageHandleResidentNV
000ff270 T glIsList
00111954 T glIsNameAMD
0015383c T glIsNamedBufferResidentNV
00125fc8 T glIsNamedStringARB
00130580 T glIsObjectBufferATI
0015051c T glIsOcclusionQueryNV
001513ec T glIsPathNV
00151478 T glIsPointInFillPathNV
00151518 T glIsPointInStrokePathNV
0010bc28 T glIsProgram
0012ae7c T glIsProgramARB
00156dbc T glIsProgramNV
00121d40 T glIsProgramPipeline
0010aa68 T glIsQuery
00112c08 T glIsQueryANGLE
0011fe70 T glIsQueryARB
001420a0 T glIsQueryEXT
0011b170 T glIsRenderbuffer
0013f67c T glIsRenderbufferEXT
00159bb8 T glIsRenderbufferOES
0012151c T glIsSampler
0010bcb4 T glIsShader
0015f01c T glIsSupportedREGAL
00126640 T glIsSync
00113e40 T glIsSyncAPPLE
001063e0 T glIsTexture
00144364 T glIsTextureEXT
001150cc T glIsTextureHandleResidentARB
0014a884 T glIsTextureHandleResidentNV
00127d0c T glIsTransformFeedback
00154b10 T glIsTransformFeedbackNV
00146658 T glIsVariantEnabledEXT
00128c04 T glIsVertexArray
0011423c T glIsVertexArrayAPPLE
0015afdc T glIsVertexArrayOES
00114594 T glIsVertexAttribEnabledAPPLE
00134384 T glLabelObjectEXT
0013ebf8 T glLightEnviEXT
00160cc8 T glLightEnviSGIX
000ff528 T glLightf
000ff5bc T glLightfv
000ff650 T glLighti
000ff6e4 T glLightiv
000ff2f8 T glLightModelf
000ff384 T glLightModelfv
000ff410 T glLightModeli
000ff49c T glLightModeliv
0015c5b8 T glLightModelx
0015c6b0 T glLightModelxv
0015c7ec T glLightx
0015c8ec T glLightxv
000ff778 T glLineStipple
000ff804 T glLineWidth
0015ca3c T glLineWidthx
0010bd3c T glLinkProgram
00124908 T glLinkProgramARB
000ff888 T glListBase
001612c4 T glListParameterfSGIX
0016135c T glListParameterfvSGIX
001613f4 T glListParameteriSGIX
0016148c T glListParameterivSGIX
000ff90c T glLoadIdentity
0016176c T glLoadIdentityDeformationMapSGIX
000ff984 T glLoadMatrixd
000ffa08 T glLoadMatrixf
0015cb2c T glLoadMatrixx
000ffa8c T glLoadName
00156e48 T glLoadProgramNV
00107184 T glLoadTransposeMatrixd
00128224 T glLoadTransposeMatrixdARB
00107208 T glLoadTransposeMatrixf
001282ac T glLoadTransposeMatrixfARB
00132934 T glLockArraysEXT
000ffb10 T glLogicOp
0015f0a4 T glLogMessageCallbackREGAL
001538c8 T glMakeBufferNonResidentNV
00153950 T glMakeBufferResidentNV
00115160 T glMakeImageHandleNonResidentARB
0014a918 T glMakeImageHandleNonResidentNV
001151f0 T glMakeImageHandleResidentARB
0014a9a8 T glMakeImageHandleResidentNV
001539e0 T glMakeNamedBufferNonResidentNV
00153a68 T glMakeNamedBufferResidentNV
00115284 T glMakeTextureHandleNonResidentARB
0014aa40 T glMakeTextureHandleNonResidentNV
00115314 T glMakeTextureHandleResidentARB
0014aad0 T glMakeTextureHandleResidentNV
000ffb94 T glMap1d
000ffc28 T glMap1f
000ffcc4 T glMap2d
000ffd58 T glMap2f
0010aaf0 T glMapBuffer
0012a4b0 T glMapBufferARB
00159ebc T glMapBufferOES
0011de00 T glMapBufferRange
001417e0 T glMapBufferRangeEXT
0014b8ec T glMapControlPointsNV
000ffdf4 T glMapGrid1d
000ffe88 T glMapGrid1f
000fff1c T glMapGrid2d
000fffb0 T glMapGrid2f
00118580 T glMapNamedBuffer
00137cd4 T glMapNamedBufferEXT
00118614 T glMapNamedBufferRange
00137d68 T glMapNamedBufferRangeEXT
0012fd58 T glMapObjectBufferATI
0014b9b8 T glMapParameterfvNV
0014ba50 T glMapParameterivNV
00148138 T glMapTexture2DINTEL
00114628 T glMapVertexAttrib1dAPPLE
001146c4 T glMapVertexAttrib1fAPPLE
00114764 T glMapVertexAttrib2dAPPLE
00114804 T glMapVertexAttrib2fAPPLE
0010004c T glMaterialf
001000e0 T glMaterialfv
00100174 T glMateriali
00100208 T glMaterialiv
0015cd2c T glMaterialx
0015ce2c T glMaterialxv
00137e0c T glMatrixFrustumEXT
0011df2c T glMatrixIndexPointerARB
0015a064 T glMatrixIndexPointerOES
0011dfc8 T glMatrixIndexubvARB
0011e058 T glMatrixIndexuivARB
0011e0e8 T glMatrixIndexusvARB
00138048 T glMatrixLoaddEXT
001380d8 T glMatrixLoadfEXT
00137ea4 T glMatrixLoadIdentityEXT
00137f2c T glMatrixLoadTransposedEXT
00137fbc T glMatrixLoadTransposefEXT
0010029c T glMatrixMode
00138288 T glMatrixMultdEXT
00138318 T glMatrixMultfEXT
00138168 T glMatrixMultTransposedEXT
001381f8 T glMatrixMultTransposefEXT
001383a8 T glMatrixOrthoEXT
00138440 T glMatrixPopEXT
001384e0 T glMatrixPushEXT
00138580 T glMatrixRotatedEXT
00138618 T glMatrixRotatefEXT
001386b8 T glMatrixScaledEXT
00138750 T glMatrixScalefEXT
001387f0 T glMatrixTranslatedEXT
00138888 T glMatrixTranslatefEXT
00123f48 T glMemoryBarrier
00114b70 T glMemoryBarrierByRegion
00143824 T glMemoryBarrierEXT
0011d498 T glMinmax
001412e0 T glMinmaxEXT
00110eb0 T glMinSampleShading
00121088 T glMinSampleShadingARB
00108b30 T glMultiDrawArrays
00141884 T glMultiDrawArraysEXT
0011e518 T glMultiDrawArraysIndirect
001116e8 T glMultiDrawArraysIndirectAMD
0011d6dc T glMultiDrawArraysIndirectCountARB
00113024 T glMultiDrawElementArrayAPPLE
00108bd0 T glMultiDrawElements
0011a350 T glMultiDrawElementsBaseVertex
00141924 T glMultiDrawElementsEXT
0011e5b8 T glMultiDrawElementsIndirect
00111788 T glMultiDrawElementsIndirectAMD
0011d77c T glMultiDrawElementsIndirectCountARB
001130c4 T glMultiDrawRangeElementArrayAPPLE
00147924 T glMultiModeDrawArraysIBM
001479c0 T glMultiModeDrawElementsIBM
00138928 T glMultiTexBufferEXT
001073a0 T glMultiTexCoord1d
0011e7f4 T glMultiTexCoord1dARB
00107434 T glMultiTexCoord1dv
0011e88c T glMultiTexCoord1dvARB
001074c4 T glMultiTexCoord1f
0011e918 T glMultiTexCoord1fARB
00107554 T glMultiTexCoord1fv
0011e9a8 T glMultiTexCoord1fvARB
0014e72c T glMultiTexCoord1hNV
0014e7bc T glMultiTexCoord1hvNV
001075e4 T glMultiTexCoord1i
0011ea38 T glMultiTexCoord1iARB
00107670 T glMultiTexCoord1iv
0011eac8 T glMultiTexCoord1ivARB
00107700 T glMultiTexCoord1s
0011eb54 T glMultiTexCoord1sARB
00107790 T glMultiTexCoord1sv
0011ebe4 T glMultiTexCoord1svARB
00107820 T glMultiTexCoord2d
0011ec74 T glMultiTexCoord2dARB
001078b4 T glMultiTexCoord2dv
0011ed0c T glMultiTexCoord2dvARB
00107944 T glMultiTexCoord2f
0011ed98 T glMultiTexCoord2fARB
001079dc T glMultiTexCoord2fv
0011ee30 T glMultiTexCoord2fvARB
0014e84c T glMultiTexCoord2hNV
0014e8e4 T glMultiTexCoord2hvNV
00107a6c T glMultiTexCoord2i
0011eec0 T glMultiTexCoord2iARB
00107b00 T glMultiTexCoord2iv
0011ef58 T glMultiTexCoord2ivARB
00107b90 T glMultiTexCoord2s
0011efe4 T glMultiTexCoord2sARB
00107c28 T glMultiTexCoord2sv
0011f07c T glMultiTexCoord2svARB
00107cb8 T glMultiTexCoord3d
0011f10c T glMultiTexCoord3dARB
00107d4c T glMultiTexCoord3dv
0011f1a4 T glMultiTexCoord3dvARB
00107ddc T glMultiTexCoord3f
0011f230 T glMultiTexCoord3fARB
00107e7c T glMultiTexCoord3fv
0011f2d0 T glMultiTexCoord3fvARB
0014e974 T glMultiTexCoord3hNV
0014ea14 T glMultiTexCoord3hvNV
00107f0c T glMultiTexCoord3i
0011f360 T glMultiTexCoord3iARB
00107fa8 T glMultiTexCoord3iv
0011f400 T glMultiTexCoord3ivARB
00108038 T glMultiTexCoord3s
0011f48c T glMultiTexCoord3sARB
001080d8 T glMultiTexCoord3sv
0011f52c T glMultiTexCoord3svARB
00108168 T glMultiTexCoord4d
0011f5bc T glMultiTexCoord4dARB
001081fc T glMultiTexCoord4dv
0011f654 T glMultiTexCoord4dvARB
0010828c T glMultiTexCoord4f
0011f6e0 T glMultiTexCoord4fARB
0010832c T glMultiTexCoord4fv
0011f780 T glMultiTexCoord4fvARB
0014eaa4 T glMultiTexCoord4hNV
0014eb50 T glMultiTexCoord4hvNV
001083bc T glMultiTexCoord4i
0011f810 T glMultiTexCoord4iARB
00108458 T glMultiTexCoord4iv
0011f8b0 T glMultiTexCoord4ivARB
001084e8 T glMultiTexCoord4s
0011f93c T glMultiTexCoord4sARB
00108594 T glMultiTexCoord4sv
0011f9e8 T glMultiTexCoord4svARB
0015d170 T glMultiTexCoord4x
0012ce00 T glMultiTexCoordP1ui
0012ce98 T glMultiTexCoordP1uiv
0012cf30 T glMultiTexCoordP2ui
0012cfc8 T glMultiTexCoordP2uiv
0012d060 T glMultiTexCoordP3ui
0012d0f8 T glMultiTexCoordP3uiv
0012d190 T glMultiTexCoordP4ui
0012d224 T glMultiTexCoordP4uiv
001389c4 T glMultiTexCoordPointerEXT
00138a64 T glMultiTexEnvfEXT
00138b04 T glMultiTexEnvfvEXT
00138ba4 T glMultiTexEnviEXT
00138c44 T glMultiTexEnvivEXT
00138ce4 T glMultiTexGendEXT
00138d7c T glMultiTexGendvEXT
00138e1c T glMultiTexGenfEXT
00138ebc T glMultiTexGenfvEXT
00138f5c T glMultiTexGeniEXT
00138ffc T glMultiTexGenivEXT
0013909c T glMultiTexImage1DEXT
0013913c T glMultiTexImage2DEXT
001391dc T glMultiTexImage3DEXT
001393b8 T glMultiTexParameterfEXT
00139458 T glMultiTexParameterfvEXT
001394f8 T glMultiTexParameteriEXT
0013927c T glMultiTexParameterIivEXT
0013931c T glMultiTexParameterIuivEXT
00139598 T glMultiTexParameterivEXT
00139638 T glMultiTexRenderbufferEXT
001396d0 T glMultiTexSubImage1DEXT
00139770 T glMultiTexSubImage2DEXT
00139810 T glMultiTexSubImage3DEXT
00100320 T glMultMatrixd
001003a4 T glMultMatrixf
0015cf70 T glMultMatrixx
00107290 T glMultTransposeMatrixd
00128334 T glMultTransposeMatrixdARB
00107318 T glMultTransposeMatrixf
001283bc T glMultTransposeMatrixfARB
001186b4 T glNamedBufferData
001398b0 T glNamedBufferDataEXT
00118754 T glNamedBufferStorage
00115908 T glNamedBufferStorageEXT
001187f4 T glNamedBufferSubData
00139950 T glNamedBufferSubDataEXT
001399f0 T glNamedCopyBufferSubDataEXT
00118894 T glNamedFramebufferDrawBuffer
00118920 T glNamedFramebufferDrawBuffers
001189b8 T glNamedFramebufferParameteri
0011a6f0 T glNamedFramebufferParameteriEXT
00118a50 T glNamedFramebufferReadBuffer
00118ae0 T glNamedFramebufferRenderbuffer
00139a90 T glNamedFramebufferRenderbufferEXT
00118b7c T glNamedFramebufferTexture
00139b30 T glNamedFramebufferTexture1DEXT
00139bd0 T glNamedFramebufferTexture2DEXT
00139c70 T glNamedFramebufferTexture3DEXT
00139d10 T glNamedFramebufferTextureEXT
00139dac T glNamedFramebufferTextureFaceEXT
00118c1c T glNamedFramebufferTextureLayer
00139e4c T glNamedFramebufferTextureLayerEXT
00139eec T glNamedProgramLocalParameter4dEXT
00139f84 T glNamedProgramLocalParameter4dvEXT
0013a024 T glNamedProgramLocalParameter4fEXT
0013a0c4 T glNamedProgramLocalParameter4fvEXT
0013a164 T glNamedProgramLocalParameterI4iEXT
0013a204 T glNamedProgramLocalParameterI4ivEXT
0013a2a4 T glNamedProgramLocalParameterI4uiEXT
0013a344 T glNamedProgramLocalParameterI4uivEXT
0013a3e4 T glNamedProgramLocalParameters4fvEXT
0013a484 T glNamedProgramLocalParametersI4ivEXT
0013a524 T glNamedProgramLocalParametersI4uivEXT
0013a5c4 T glNamedProgramStringEXT
00118cbc T glNamedRenderbufferStorage
0013a664 T glNamedRenderbufferStorageEXT
00118d5c T glNamedRenderbufferStorageMultisample
0013a704 T glNamedRenderbufferStorageMultisampleCoverageEXT
0013a7a0 T glNamedRenderbufferStorageMultisampleEXT
00126058 T glNamedStringARB
001495e4 T glNewBufferRegion
00100428 T glNewList
0013060c T glNewObjectBufferATI
001004cc T glNormal3b
00100560 T glNormal3bv
001005e4 T glNormal3d
00100680 T glNormal3dv
00100704 T glNormal3f
00100798 T glNormal3fv
00162e00 T glNormal3fVertex3fSUN
00162ea0 T glNormal3fVertex3fvSUN
0014ebe0 T glNormal3hNV
0014ec78 T glNormal3hvNV
0010081c T glNormal3i
001008b0 T glNormal3iv
00100934 T glNormal3s
001009c8 T glNormal3sv
0015d2a8 T glNormal3x
001561d4 T glNormalFormatNV
0012d2bc T glNormalP3ui
0012d34c T glNormalP3uiv
0010646c T glNormalPointer
00144fc0 T glNormalPointerEXT
00147cd8 T glNormalPointerListIBM
00148388 T glNormalPointervINTEL
00130a3c T glNormalStream3bATI
00130adc T glNormalStream3bvATI
00130b6c T glNormalStream3dATI
00130c04 T glNormalStream3dvATI
00130c94 T glNormalStream3fATI
00130d34 T glNormalStream3fvATI
00130dc4 T glNormalStream3iATI
00130e64 T glNormalStream3ivATI
00130ef4 T glNormalStream3sATI
00130f94 T glNormalStream3svATI
00148c68 T glObjectLabel
00148d08 T glObjectPtrLabel
00113a20 T glObjectPurgeableAPPLE
00113abc T glObjectUnpurgeableAPPLE
00100a4c T glOrtho
0015d3c0 T glOrthof
0015a480 T glOrthofOES
0015d4ec T glOrthox
0012fb98 T glPassTexCoordATI
00100ae8 T glPassThrough
0012676c T glPatchParameterfv
001267fc T glPatchParameteri
001515b4 T glPathColorGenNV
00151654 T glPathCommandsNV
001516f4 T glPathCoordsNV
00151794 T glPathCoverDepthFuncNV
0015181c T glPathDashArrayNV
001518b4 T glPathFogGenNV
0015193c T glPathGlyphRangeNV
001519dc T glPathGlyphsNV
00151a7c T glPathParameterfNV
00151b14 T glPathParameterfvNV
00151bac T glPathParameteriNV
00151c44 T glPathParameterivNV
00151cdc T glPathStencilDepthOffsetNV
00151d6c T glPathStencilFuncNV
00151e04 T glPathStringNV
00151ea0 T glPathSubCommandsNV
00151f40 T glPathSubCoordsNV
00151fe0 T glPathTexGenNV
00127d98 T glPauseTransformFeedback
00154b9c T glPauseTransformFeedbackNV
0015255c T glPixelDataRangeNV
00100b6c T glPixelMapfv
00100c00 T glPixelMapuiv
00100c94 T glPixelMapusv
00100d28 T glPixelStoref
00100db4 T glPixelStorei
0015f6f4 T glPixelTexGenParameterfSGIS
0015f784 T glPixelTexGenParameterfvSGIS
0015f814 T glPixelTexGenParameteriSGIS
0015f8a4 T glPixelTexGenParameterivSGIS
00161524 T glPixelTexGenSGIX
00100e40 T glPixelTransferf
00100ecc T glPixelTransferi
001424c8 T glPixelTransformParameterfEXT
00142560 T glPixelTransformParameterfvEXT
001425f8 T glPixelTransformParameteriEXT
00142690 T glPixelTransformParameterivEXT
00100f58 T glPixelZoom
0012fe6c T glPNTrianglesfATI
0012fefc T glPNTrianglesiATI
00152080 T glPointAlongPathNV
00108c70 T glPointParameterf
0011fefc T glPointParameterfARB
00142728 T glPointParameterfEXT
0015f934 T glPointParameterfSGIS
00108d00 T glPointParameterfv
0011ff8c T glPointParameterfvARB
001427b8 T glPointParameterfvEXT
0015f9c4 T glPointParameterfvSGIS
00108d8c T glPointParameteri
001525f4 T glPointParameteriNV
00108e1c T glPointParameteriv
00152684 T glPointParameterivNV
0015eb04 T glPointParameterx
0015ec00 T glPointParameterxv
00100fe4 T glPointSize
0015ed3c T glPointSizePointerOES
0015d5dc T glPointSizex
0016014c T glPollAsyncSGIX
00160f80 T glPollInstrumentsSGIX
00101068 T glPolygonMode
00106504 T glPolygonOffset
00142848 T glPolygonOffsetEXT
0015d6cc T glPolygonOffsetx
001010f4 T glPolygonStipple
00101178 T glPopAttrib
00106594 T glPopClientAttrib
00148da0 T glPopDebugGroup
00134654 T glPopGroupMarkerEXT
00101208 T glPopMatrix
00101298 T glPopName
00152970 T glPresentFrameDualFillNV
00152a08 T glPresentFrameKeyedNV
001107b4 T glPrimitiveRestartIndex
00152aa0 T glPrimitiveRestartIndexNV
00152b28 T glPrimitiveRestartNV
0010660c T glPrioritizeTextures
001443f0 T glPrioritizeTexturesEXT
0011b64c T glProgramBinary
00159d84 T glProgramBinaryOES
001506e8 T glProgramBufferParametersfvNV
001505a8 T glProgramBufferParametersIivNV
00150648 T glProgramBufferParametersIuivNV
0012af08 T glProgramEnvParameter4dARB
0012afa8 T glProgramEnvParameter4dvARB
0012b040 T glProgramEnvParameter4fARB
0012b0e0 T glProgramEnvParameter4fvARB
0014c86c T glProgramEnvParameterI4iNV
0014c90c T glProgramEnvParameterI4ivNV
0014c9a0 T glProgramEnvParameterI4uiNV
0014ca40 T glProgramEnvParameterI4uivNV
0013f980 T glProgramEnvParameters4fvEXT
0014cad8 T glProgramEnvParametersI4ivNV
0014cb78 T glProgramEnvParametersI4uivNV
0012b178 T glProgramLocalParameter4dARB
0012b218 T glProgramLocalParameter4dvARB
0012b2b0 T glProgramLocalParameter4fARB
0012b350 T glProgramLocalParameter4fvARB
0014cc18 T glProgramLocalParameterI4iNV
0014ccb8 T glProgramLocalParameterI4ivNV
0014cd50 T glProgramLocalParameterI4uiNV
0014cdf0 T glProgramLocalParameterI4uivNV
0013fa20 T glProgramLocalParameters4fvEXT
0014ce88 T glProgramLocalParametersI4ivNV
0014cf28 T glProgramLocalParametersI4uivNV
0014c1c4 T glProgramNamedParameter4dNV
0014c25c T glProgramNamedParameter4dvNV
0014c2fc T glProgramNamedParameter4fNV
0014c39c T glProgramNamedParameter4fvNV
00156ee8 T glProgramParameter4dNV
00156f88 T glProgramParameter4dvNV
00157020 T glProgramParameter4fNV
001570c0 T glProgramParameter4fvNV
0011b6e8 T glProgramParameteri
0011b514 T glProgramParameteriARB
0013f8e8 T glProgramParameteriEXT
00157158 T glProgramParameters4dvNV
001571f8 T glProgramParameters4fvNV
0012b3e8 T glProgramStringARB
00125c28 T glProgramSubroutineParametersuivNV
00121dcc T glProgramUniform1d
0013a840 T glProgramUniform1dEXT
00121e6c T glProgramUniform1dv
0013a8e0 T glProgramUniform1dvEXT
00121f0c T glProgramUniform1f
0013a980 T glProgramUniform1fEXT
00121fa4 T glProgramUniform1fv
0013aa18 T glProgramUniform1fvEXT
00122044 T glProgramUniform1i
0014d060 T glProgramUniform1i64NV
0014d100 T glProgramUniform1i64vNV
0013aab8 T glProgramUniform1iEXT
001220dc T glProgramUniform1iv
0013ab50 T glProgramUniform1ivEXT
0012217c T glProgramUniform1ui
0014d1a0 T glProgramUniform1ui64NV
0014d240 T glProgramUniform1ui64vNV
0013abf0 T glProgramUniform1uiEXT
00122214 T glProgramUniform1uiv
0013ac88 T glProgramUniform1uivEXT
001222b4 T glProgramUniform2d
0013ad28 T glProgramUniform2dEXT
00122354 T glProgramUniform2dv
0013adc8 T glProgramUniform2dvEXT
001223f4 T glProgramUniform2f
0013ae68 T glProgramUniform2fEXT
00122494 T glProgramUniform2fv
0013af08 T glProgramUniform2fvEXT
00122534 T glProgramUniform2i
0014d2e0 T glProgramUniform2i64NV
0014d37c T glProgramUniform2i64vNV
0013afa8 T glProgramUniform2iEXT
001225d4 T glProgramUniform2iv
0013b048 T glProgramUniform2ivEXT
00122670 T glProgramUniform2ui
0014d41c T glProgramUniform2ui64NV
0014d4bc T glProgramUniform2ui64vNV
0013b0e8 T glProgramUniform2uiEXT
00122710 T glProgramUniform2uiv
0013b184 T glProgramUniform2uivEXT
001227b0 T glProgramUniform3d
0013b224 T glProgramUniform3dEXT
00122850 T glProgramUniform3dv
0013b2c4 T glProgramUniform3dvEXT
001228f0 T glProgramUniform3f
0013b364 T glProgramUniform3fEXT
00122990 T glProgramUniform3fv
0013b404 T glProgramUniform3fvEXT
00122a30 T glProgramUniform3i
0014d55c T glProgramUniform3i64NV
0014d5fc T glProgramUniform3i64vNV
0013b4a4 T glProgramUniform3iEXT
00122ad0 T glProgramUniform3iv
0013b544 T glProgramUniform3ivEXT
00122b70 T glProgramUniform3ui
0014d69c T glProgramUniform3ui64NV
0014d73c T glProgramUniform3ui64vNV
0013b5e4 T glProgramUniform3uiEXT
00122c10 T glProgramUniform3uiv
0013b684 T glProgramUniform3uivEXT
00122cb0 T glProgramUniform4d
0013b724 T glProgramUniform4dEXT
00122d50 T glProgramUniform4dv
0013b7c4 T glProgramUniform4dvEXT
00122df0 T glProgramUniform4f
0013b864 T glProgramUniform4fEXT
00122e90 T glProgramUniform4fv
0013b904 T glProgramUniform4fvEXT
00122f30 T glProgramUniform4i
0014d7dc T glProgramUniform4i64NV
0014d87c T glProgramUniform4i64vNV
0013b9a4 T glProgramUniform4iEXT
00122fd0 T glProgramUniform4iv
0013ba44 T glProgramUniform4ivEXT
0012306c T glProgramUniform4ui
0014d91c T glProgramUniform4ui64NV
0014d9bc T glProgramUniform4ui64vNV
0013bae4 T glProgramUniform4uiEXT
0012310c T glProgramUniform4uiv
0013bb80 T glProgramUniform4uivEXT
001153a4 T glProgramUniformHandleui64ARB
0014ab60 T glProgramUniformHandleui64NV
00115444 T glProgramUniformHandleui64vARB
0014ac00 T glProgramUniformHandleui64vNV
001231ac T glProgramUniformMatrix2dv
0013bc20 T glProgramUniformMatrix2dvEXT
0012324c T glProgramUniformMatrix2fv
0013bcc0 T glProgramUniformMatrix2fvEXT
001232ec T glProgramUniformMatrix2x3dv
0013bd60 T glProgramUniformMatrix2x3dvEXT
0012338c T glProgramUniformMatrix2x3fv
0013be00 T glProgramUniformMatrix2x3fvEXT
0012342c T glProgramUniformMatrix2x4dv
0013bea0 T glProgramUniformMatrix2x4dvEXT
001234cc T glProgramUniformMatrix2x4fv
0013bf40 T glProgramUniformMatrix2x4fvEXT
0012356c T glProgramUniformMatrix3dv
0013bfe0 T glProgramUniformMatrix3dvEXT
0012360c T glProgramUniformMatrix3fv
0013c080 T glProgramUniformMatrix3fvEXT
001236ac T glProgramUniformMatrix3x2dv
0013c120 T glProgramUniformMatrix3x2dvEXT
0012374c T glProgramUniformMatrix3x2fv
0013c1c0 T glProgramUniformMatrix3x2fvEXT
001237ec T glProgramUniformMatrix3x4dv
0013c260 T glProgramUniformMatrix3x4dvEXT
0012388c T glProgramUniformMatrix3x4fv
0013c300 T glProgramUniformMatrix3x4fvEXT
0012392c T glProgramUniformMatrix4dv
0013c3a0 T glProgramUniformMatrix4dvEXT
001239cc T glProgramUniformMatrix4fv
0013c440 T glProgramUniformMatrix4fvEXT
00123a68 T glProgramUniformMatrix4x2dv
0013c4e0 T glProgramUniformMatrix4x2dvEXT
00123b08 T glProgramUniformMatrix4x2fv
0013c57c T glProgramUniformMatrix4x2fvEXT
00123ba8 T glProgramUniformMatrix4x3dv
0013c61c T glProgramUniformMatrix4x3dvEXT
00123c48 T glProgramUniformMatrix4x3fv
0013c6bc T glProgramUniformMatrix4x3fvEXT
00153af4 T glProgramUniformui64NV
00153b94 T glProgramUniformui64vNV
0014c57c T glProgramVertexLimitNV
001203cc T glProvokingVertex
001428d8 T glProvokingVertexEXT
00101310 T glPushAttrib
001066a4 T glPushClientAttrib
0013c75c T glPushClientAttribDefaultEXT
00148eac T glPushDebugGroup
0013475c T glPushGroupMarkerEXT
001013ac T glPushMatrix
0010143c T glPushName
00127a3c T glQueryCounter
00112c94 T glQueryCounterANGLE
0013d950 T glQueryCounterEXT
001014c0 T glRasterPos2d
0010155c T glRasterPos2dv
001015e0 T glRasterPos2f
0010166c T glRasterPos2fv
001016f0 T glRasterPos2i
0010177c T glRasterPos2iv
00101800 T glRasterPos2s
0010188c T glRasterPos2sv
00101910 T glRasterPos3d
001019ac T glRasterPos3dv
00101a30 T glRasterPos3f
00101ac4 T glRasterPos3fv
00101b48 T glRasterPos3i
00101bdc T glRasterPos3iv
00101c60 T glRasterPos3s
00101cf4 T glRasterPos3sv
00101d78 T glRasterPos4d
00101e14 T glRasterPos4dv
00101e98 T glRasterPos4f
00101f34 T glRasterPos4fv
00101fb8 T glRasterPos4i
00102054 T glRasterPos4iv
001020d8 T glRasterPos4s
00102174 T glRasterPos4sv
001021f8 T glReadBuffer
00141ca8 T glReadBufferIndexedEXT
00152ba4 T glReadBufferNV
00149670 T glReadBufferRegion
0016100c T glReadInstrumentsSGIX
0014939c T glReadnPixels
00120fe8 T glReadnPixelsARB
00142aa0 T glReadnPixelsEXT
0010227c T glReadPixels
001624d4 T glReadVideoPixelsSUN
00102318 T glRectd
001023b4 T glRectdv
00102440 T glRectf
001024dc T glRectfv
00102568 T glRecti
00102604 T glRectiv
00102690 T glRects
0010272c T glRectsv
001617f4 T glReferencePlaneSGIX
00114a58 T glReleaseShaderCompiler
0011b1f8 T glRenderbufferStorage
0013f708 T glRenderbufferStorageEXT
0011b298 T glRenderbufferStorageMultisample
00112474 T glRenderbufferStorageMultisampleANGLE
00113868 T glRenderbufferStorageMultisampleAPPLE
0014c4dc T glRenderbufferStorageMultisampleCoverageNV
0013ed28 T glRenderbufferStorageMultisampleEXT
00147ff8 T glRenderbufferStorageMultisampleIMG
00159c44 T glRenderbufferStorageOES
001027b8 T glRenderMode
00162574 T glReplacementCodePointerSUN
0016260c T glReplacementCodeubSUN
00162694 T glReplacementCodeubvSUN
00162f30 T glReplacementCodeuiColor3fVertex3fSUN
00162fd0 T glReplacementCodeuiColor3fVertex3fvSUN
00163068 T glReplacementCodeuiColor4fNormal3fVertex3fSUN
00163108 T glReplacementCodeuiColor4fNormal3fVertex3fvSUN
001631a8 T glReplacementCodeuiColor4ubVertex3fSUN
00163274 T glReplacementCodeuiColor4ubVertex3fvSUN
0016330c T glReplacementCodeuiNormal3fVertex3fSUN
001633ac T glReplacementCodeuiNormal3fVertex3fvSUN
0016271c T glReplacementCodeuiSUN
00163444 T glReplacementCodeuiTexCoord2fColor4fNormal3fVertex3fSUN
001634e4 T glReplacementCodeuiTexCoord2fColor4fNormal3fVertex3fvSUN
00163584 T glReplacementCodeuiTexCoord2fNormal3fVertex3fSUN
00163624 T glReplacementCodeuiTexCoord2fNormal3fVertex3fvSUN
001636c4 T glReplacementCodeuiTexCoord2fVertex3fSUN
00163760 T glReplacementCodeuiTexCoord2fVertex3fvSUN
001637f8 T glReplacementCodeuiVertex3fSUN
00163898 T glReplacementCodeuiVertex3fvSUN
001627a4 T glReplacementCodeuivSUN
0016282c T glReplacementCodeusSUN
001628b4 T glReplacementCodeusvSUN
00157298 T glRequestResidentProgramsNV
0011d530 T glResetHistogram
00141378 T glResetHistogramEXT
0011d5b8 T glResetMinmax
00141400 T glResetMinmaxEXT
00149710 T glResizeBuffersMESA
00113904 T glResolveMultisampleFramebufferAPPLE
00127e10 T glResumeTransformFeedback
00154c18 T glResumeTransformFeedbackNV
00102840 T glRotated
001028dc T glRotatef
0015d7d4 T glRotatex
00108624 T glSampleCoverage
0011e658 T glSampleCoverageARB
0015d900 T glSampleCoveragex
0012fc30 T glSampleMapATI
001419c4 T glSampleMaskEXT
00126fcc T glSampleMaski
0014bb80 T glSampleMaskIndexedNV
0015f4c0 T glSampleMaskSGIS
00141a54 T glSamplePatternEXT
0015f550 T glSamplePatternSGIS
001216d8 T glSamplerParameterf
00121770 T glSamplerParameterfv
00121808 T glSamplerParameteri
001215a8 T glSamplerParameterIiv
00121640 T glSamplerParameterIuiv
001218a0 T glSamplerParameteriv
00102978 T glScaled
00102a14 T glScalef
0015d9f8 T glScalex
00102aa8 T glScissor
0012e438 T glScissorArrayv
0012e4cc T glScissorIndexed
0012e56c T glScissorIndexedv
00108eac T glSecondaryColor3b
00142c38 T glSecondaryColor3bEXT
00108f44 T glSecondaryColor3bv
00142cd0 T glSecondaryColor3bvEXT
00108fc8 T glSecondaryColor3d
00142d54 T glSecondaryColor3dEXT
00109068 T glSecondaryColor3dv
00142df4 T glSecondaryColor3dvEXT
001090f0 T glSecondaryColor3f
00142e7c T glSecondaryColor3fEXT
00109188 T glSecondaryColor3fv
00142f14 T glSecondaryColor3fvEXT
0014ed00 T glSecondaryColor3hNV
0014ed98 T glSecondaryColor3hvNV
0010920c T glSecondaryColor3i
00142f9c T glSecondaryColor3iEXT
001092a4 T glSecondaryColor3iv
00143034 T glSecondaryColor3ivEXT
0010932c T glSecondaryColor3s
001430bc T glSecondaryColor3sEXT
001093c4 T glSecondaryColor3sv
00143154 T glSecondaryColor3svEXT
00109448 T glSecondaryColor3ub
001431dc T glSecondaryColor3ubEXT
001094e0 T glSecondaryColor3ubv
00143274 T glSecondaryColor3ubvEXT
00109568 T glSecondaryColor3ui
001432fc T glSecondaryColor3uiEXT
00109600 T glSecondaryColor3uiv
00143394 T glSecondaryColor3uivEXT
00109684 T glSecondaryColor3us
0014341c T glSecondaryColor3usEXT
0010971c T glSecondaryColor3usv
001434b4 T glSecondaryColor3usvEXT
00156264 T glSecondaryColorFormatNV
0012d3dc T glSecondaryColorP3ui
0012d46c T glSecondaryColorP3uiv
001097a4 T glSecondaryColorPointer
0014353c T glSecondaryColorPointerEXT
00147d78 T glSecondaryColorPointerListIBM
00102b44 T glSelectBuffer
00111fc4 T glSelectPerfMonitorCountersAMD
0011d63c T glSeparableFilter2D
0013318c T glSeparableFilter2DEXT
00113424 T glSetFenceAPPLE
0014bf6c T glSetFenceNV
0012fcc8 T glSetFragmentShaderConstantATI
001466ec T glSetInvariantEXT
00146784 T glSetLocalConstantEXT
00112064 T glSetMultisamplefvAMD
00102bd0 T glShadeModel
00114ad4 T glShaderBinary
0014681c T glShaderOp1EXT
001468b4 T glShaderOp2EXT
00146954 T glShaderOp3EXT
0010bdc4 T glShaderSource
00124990 T glShaderSourceARB
001256a8 T glShaderStorageBlockBinding
0015fae4 T glSharpenTexFuncSGIS
004e4e74 T glsl_strtod
004e4e78 T glsl_strtof
0016187c T glSpriteParameterfSGIX
0016190c T glSpriteParameterfvSGIX
0016199c T glSpriteParameteriSGIX
00161a2c T glSpriteParameterivSGIX
00161094 T glStartInstrumentsSGIX
0015bb78 T glStartTilingQCOM
001438ac T glStencilClearTagEXT
00152124 T glStencilFillPathInstancedNV
001521c4 T glStencilFillPathNV
00102c54 T glStencilFunc
0010be64 T glStencilFuncSeparate
0012ff8c T glStencilFuncSeparateATI
00102ce8 T glStencilMask
0010bf04 T glStencilMaskSeparate
00102d6c T glStencilOp
0010bf90 T glStencilOpSeparate
00130028 T glStencilOpSeparateATI
00112238 T glStencilOpValueAMD
0015225c T glStencilStrokePathInstancedNV
001522fc T glStencilStrokePathNV
00161110 T glStopInstrumentsSGIX
00147364 T glStringMarkerGREMEDY
001137ec T glSwapAPPLE
001469f4 T glSwizzleEXT
001481dc T glSyncTextureINTEL
00161abc T glTagSampleBufferSGIX
00133868 T glTangent3bEXT
00133900 T glTangent3bvEXT
00133988 T glTangent3dEXT
00133a28 T glTangent3dvEXT
00133ab0 T glTangent3fEXT
00133b48 T glTangent3fvEXT
00133bd0 T glTangent3iEXT
00133c68 T glTangent3ivEXT
00133cf0 T glTangent3sEXT
00133d88 T glTangent3svEXT
00133e10 T glTangentPointerEXT
00110f38 T glTbufferMask3DFX
001122c8 T glTessellationFactorAMD
00112350 T glTessellationModeAMD
001134a8 T glTestFenceAPPLE
0014bff8 T glTestFenceNV
00113534 T glTestObjectAPPLE
0011083c T glTexBuffer
00126908 T glTexBufferARB
00143ce4 T glTexBufferEXT
001269a0 T glTexBufferRange
0012f428 T glTexBumpParameterfvATI
0012f4b8 T glTexBumpParameterivATI
00102e00 T glTexCoord1d
00102e8c T glTexCoord1dv
00102f10 T glTexCoord1f
00102f94 T glTexCoord1fv
0014ee20 T glTexCoord1hNV
0014eea8 T glTexCoord1hvNV
00103018 T glTexCoord1i
0010309c T glTexCoord1iv
00103120 T glTexCoord1s
001031a4 T glTexCoord1sv
00103228 T glTexCoord2d
001032c4 T glTexCoord2dv
00103348 T glTexCoord2f
00163928 T glTexCoord2fColor3fVertex3fSUN
001639c8 T glTexCoord2fColor3fVertex3fvSUN
00163a60 T glTexCoord2fColor4fNormal3fVertex3fSUN
00163b00 T glTexCoord2fColor4fNormal3fVertex3fvSUN
00163ba0 T glTexCoord2fColor4ubVertex3fSUN
00163c78 T glTexCoord2fColor4ubVertex3fvSUN
00163d10 T glTexCoord2fNormal3fVertex3fSUN
00163db0 T glTexCoord2fNormal3fVertex3fvSUN
001033d4 T glTexCoord2fv
00163e48 T glTexCoord2fVertex3fSUN
00163ee8 T glTexCoord2fVertex3fvSUN
0014ef30 T glTexCoord2hNV
0014efbc T glTexCoord2hvNV
00103458 T glTexCoord2i
001034e4 T glTexCoord2iv
00103568 T glTexCoord2s
001035f4 T glTexCoord2sv
00103678 T glTexCoord3d
00103714 T glTexCoord3dv
00103798 T glTexCoord3f
0010382c T glTexCoord3fv
0014f044 T glTexCoord3hNV
0014f0dc T glTexCoord3hvNV
001038b0 T glTexCoord3i
00103944 T glTexCoord3iv
001039c8 T glTexCoord3s
00103a5c T glTexCoord3sv
00103ae4 T glTexCoord4d
00103b84 T glTexCoord4dv
00103c0c T glTexCoord4f
00163f78 T glTexCoord4fColor4fNormal3fVertex4fSUN
00164018 T glTexCoord4fColor4fNormal3fVertex4fvSUN
00103ca8 T glTexCoord4fv
001640b8 T glTexCoord4fVertex4fSUN
00164154 T glTexCoord4fVertex4fvSUN
0014f164 T glTexCoord4hNV
0014f204 T glTexCoord4hvNV
00103d30 T glTexCoord4i
00103dd0 T glTexCoord4iv
00103e58 T glTexCoord4s
00103ef4 T glTexCoord4sv
001562fc T glTexCoordFormatNV
0012d4fc T glTexCoordP1ui
0012d58c T glTexCoordP1uiv
0012d61c T glTexCoordP2ui
0012d6ac T glTexCoordP2uiv
0012d73c T glTexCoordP3ui
0012d7cc T glTexCoordP3uiv
0012d85c T glTexCoordP4ui
0012d8ec T glTexCoordP4uiv
0010672c T glTexCoordPointer
00145060 T glTexCoordPointerEXT
00147e18 T glTexCoordPointerListIBM
00148418 T glTexCoordPointervINTEL
00103f7c T glTexEnvf
00104014 T glTexEnvfv
001040ac T glTexEnvi
00104140 T glTexEnviv
0015db10 T glTexEnvx
0015dc14 T glTexEnvxv
0015fdf4 T glTexFilterFuncSGIS
001041d8 T glTexGend
00104278 T glTexGendv
00104310 T glTexGenf
0015aaa8 T glTexGenfOES
001043a4 T glTexGenfv
0015ab40 T glTexGenfvOES
0010443c T glTexGeni
0015abd8 T glTexGeniOES
001044d4 T glTexGeniv
0015ac6c T glTexGenivOES
0015ad04 T glTexGenxOES
0015ad9c T glTexGenxvOES
0010456c T glTexImage1D
00104608 T glTexImage2D
0012705c T glTexImage2DMultisample
00153de0 T glTexImage2DMultisampleCoverageNV
00106ae4 T glTexImage3D
00143ba4 T glTexImage3DEXT
0012710c T glTexImage3DMultisample
00153e9c T glTexImage3DMultisampleCoverageNV
0015a7a0 T glTexImage3DOES
0015fb7c T glTexImage4DSGIS
00126198 T glTexPageCommitmentARB
001046a8 T glTexParameterf
00104740 T glTexParameterfv
001047d8 T glTexParameteri
0010f3cc T glTexParameterIiv
00143fe8 T glTexParameterIivEXT
0010f464 T glTexParameterIuiv
00144080 T glTexParameterIuivEXT
0010486c T glTexParameteriv
0015dd5c T glTexParameterx
0015edd4 T glTexParameterxv
0014bc10 T glTexRenderbufferNV
00148548 T glTexScissorFuncINTEL
001485e0 T glTexScissorINTEL
001271c8 T glTexStorage1D
00144510 T glTexStorage1DEXT
00127268 T glTexStorage2D
001445b0 T glTexStorage2DEXT
00127584 T glTexStorage2DMultisample
00127308 T glTexStorage3D
00144650 T glTexStorage3DEXT
00127634 T glTexStorage3DMultisample
001120fc T glTexStorageSparseAMD
001067cc T glTexSubImage1D
001439c4 T glTexSubImage1DEXT
00106868 T glTexSubImage2D
00143a64 T glTexSubImage2DEXT
00106b84 T glTexSubImage3D
00143b04 T glTexSubImage3DEXT
0015a840 T glTexSubImage3DOES
0015fc1c T glTexSubImage4DSGIS
0012688c T glTextureBarrier
00153d64 T glTextureBarrierNV
00118df8 T glTextureBuffer
0013c7e4 T glTextureBufferEXT
00118e90 T glTextureBufferRange
00126a3c T glTextureBufferRangeEXT
0015fcbc T glTextureColorMaskSGIS
00160254 T glTextureFogSGIX
0013c884 T glTextureImage1DEXT
0013c924 T glTextureImage2DEXT
00153f5c T glTextureImage2DMultisampleCoverageNV
0015401c T glTextureImage2DMultisampleNV
0013c9c4 T glTextureImage3DEXT
001540d8 T glTextureImage3DMultisampleCoverageNV
001541a4 T glTextureImage3DMultisampleNV
00141630 T glTextureLightEXT
001416b8 T glTextureMaterialEXT
00144488 T glTextureNormalEXT
00126264 T glTexturePageCommitmentEXT
0011905c T glTextureParameterf
0013cba4 T glTextureParameterfEXT
001190f4 T glTextureParameterfv
0013cc44 T glTextureParameterfvEXT
0011918c T glTextureParameteri
0013cce4 T glTextureParameteriEXT
00118f30 T glTextureParameterIiv
0013ca64 T glTextureParameterIivEXT
00118fc8 T glTextureParameterIuiv
0013cb04 T glTextureParameterIuivEXT
00119224 T glTextureParameteriv
0013cd84 T glTextureParameterivEXT
00114000 T glTextureRangeAPPLE
0013ce24 T glTextureRenderbufferEXT
001192b8 T glTextureStorage1D
001273a8 T glTextureStorage1DEXT
00119358 T glTextureStorage2D
00127444 T glTextureStorage2DEXT
001193f8 T glTextureStorage2DMultisample
001276f0 T glTextureStorage2DMultisampleEXT
001194a8 T glTextureStorage3D
001274e4 T glTextureStorage3DEXT
00119544 T glTextureStorage3DMultisample
001277ac T glTextureStorage3DMultisampleEXT
0011219c T glTextureStorageSparseAMD
00119600 T glTextureSubImage1D
0013cebc T glTextureSubImage1DEXT
001196a0 T glTextureSubImage2D
0013cf58 T glTextureSubImage2DEXT
00119740 T glTextureSubImage3D
0013cff8 T glTextureSubImage3DEXT
0012786c T glTextureView
00157328 T glTrackMatrixNV
00154798 T glTransformFeedbackAttribsNV
001197dc T glTransformFeedbackBufferBase
00119874 T glTransformFeedbackBufferRange
0010f4fc T glTransformFeedbackVaryings
00144b98 T glTransformFeedbackVaryingsEXT
00154830 T glTransformFeedbackVaryingsNV
00152394 T glTransformPathNV
00104904 T glTranslated
001049a4 T glTranslatef
0015de60 T glTranslatex
0011b954 T glUniform1d
0011b9ec T glUniform1dv
0010c030 T glUniform1f
00124a30 T glUniform1fARB
0010c0c0 T glUniform1fv
00124ac0 T glUniform1fvARB
0010c158 T glUniform1i
0014da5c T glUniform1i64NV
0014daf4 T glUniform1i64vNV
00124b58 T glUniform1iARB
0010c1e4 T glUniform1iv
00124be8 T glUniform1ivARB
0010f59c T glUniform1ui
0014db8c T glUniform1ui64NV
0014dc24 T glUniform1ui64vNV
0013fdb4 T glUniform1uiEXT
0010f628 T glUniform1uiv
0013fe44 T glUniform1uivEXT
0011ba84 T glUniform2d
0011bb1c T glUniform2dv
0010c27c T glUniform2f
00124c80 T glUniform2fARB
0010c314 T glUniform2fv
00124d14 T glUniform2fvARB
0010c3ac T glUniform2i
0014dcbc T glUniform2i64NV
0014dd50 T glUniform2i64vNV
00124dac T glUniform2iARB
0010c440 T glUniform2iv
00124e44 T glUniform2ivARB
0010f6c0 T glUniform2ui
0014dde8 T glUniform2ui64NV
0014de80 T glUniform2ui64vNV
0013fed8 T glUniform2uiEXT
0010f758 T glUniform2uiv
0013ff70 T glUniform2uivEXT
0011bbb0 T glUniform3d
0011bc48 T glUniform3dv
0010c4d8 T glUniform3f
00124edc T glUniform3fARB
0010c578 T glUniform3fv
00124f7c T glUniform3fvARB
0010c610 T glUniform3i
0014df18 T glUniform3i64NV
0014dfb0 T glUniform3i64vNV
00125014 T glUniform3iARB
0010c6ac T glUniform3iv
001250b4 T glUniform3ivARB
0010f7f0 T glUniform3ui
0014e048 T glUniform3ui64NV
0014e0e0 T glUniform3ui64vNV
00140008 T glUniform3uiEXT
0010f88c T glUniform3uiv
001400a8 T glUniform3uivEXT
0011bce0 T glUniform4d
0011bd78 T glUniform4dv
0010c744 T glUniform4f
0012514c T glUniform4fARB
0010c7e4 T glUniform4fv
001251ec T glUniform4fvARB
0010c87c T glUniform4i
0014e178 T glUniform4i64NV
0014e210 T glUniform4i64vNV
00125284 T glUniform4iARB
0010c918 T glUniform4iv
00125324 T glUniform4ivARB
0010f924 T glUniform4ui
0014e2a8 T glUniform4ui64NV
0014e340 T glUniform4ui64vNV
00140140 T glUniform4uiEXT
0010f9c4 T glUniform4uiv
001401e0 T glUniform4uivEXT
001289c4 T glUniformBlockBinding
00132508 T glUniformBufferEXT
001154e0 T glUniformHandleui64ARB
0014aca0 T glUniformHandleui64NV
00115578 T glUniformHandleui64vARB
0014ad34 T glUniformHandleui64vNV
0011be0c T glUniformMatrix2dv
0010c9b0 T glUniformMatrix2fv
001253bc T glUniformMatrix2fvARB
0011beac T glUniformMatrix2x3dv
0010e1f0 T glUniformMatrix2x3fv
0014fe0c T glUniformMatrix2x3fvNV
0011bf4c T glUniformMatrix2x4dv
0010e28c T glUniformMatrix2x4fv
0014feac T glUniformMatrix2x4fvNV
0011bfec T glUniformMatrix3dv
0010ca50 T glUniformMatrix3fv
0012545c T glUniformMatrix3fvARB
0011c088 T glUniformMatrix3x2dv
0010e32c T glUniformMatrix3x2fv
0014ff4c T glUniformMatrix3x2fvNV
0011c128 T glUniformMatrix3x4dv
0010e3cc T glUniformMatrix3x4fv
0014ffec T glUniformMatrix3x4fvNV
0011c1c8 T glUniformMatrix4dv
0010caf0 T glUniformMatrix4fv
001254fc T glUniformMatrix4fvARB
0011c268 T glUniformMatrix4x2dv
0010e46c T glUniformMatrix4x2fv
0015008c T glUniformMatrix4x2fvNV
0011c304 T glUniformMatrix4x3dv
0010e508 T glUniformMatrix4x3fv
0015012c T glUniformMatrix4x3fvNV
00125cc0 T glUniformSubroutinesuiv
00153c34 T glUniformui64NV
00153ccc T glUniformui64vNV
001329c4 T glUnlockArraysEXT
0010ab84 T glUnmapBuffer
0012a544 T glUnmapBufferARB
00159f50 T glUnmapBufferOES
00119914 T glUnmapNamedBuffer
0013d098 T glUnmapNamedBufferEXT
0012fde4 T glUnmapObjectBufferATI
00148264 T glUnmapTexture2DINTEL
001306a8 T glUpdateObjectBufferATI
0010cb8c T glUseProgram
0012559c T glUseProgramObjectARB
00123ce8 T glUseProgramStages
001436f4 T glUseShaderProgramEXT
0010cc14 T glValidateProgram
00125624 T glValidateProgramARB
00123d80 T glValidateProgramPipeline
00130748 T glVariantArrayObjectATI
00146b34 T glVariantbvEXT
00146bc4 T glVariantdvEXT
00146c54 T glVariantfvEXT
00146ce4 T glVariantivEXT
00146a94 T glVariantPointerEXT
00146d74 T glVariantsvEXT
00146e04 T glVariantubvEXT
00146e90 T glVariantuivEXT
00146f20 T glVariantusvEXT
00154c94 T glVDPAUFiniNV
00154d10 T glVDPAUGetSurfaceivNV
00154db0 T glVDPAUInitNV
00154e3c T glVDPAUIsSurfaceNV
00154ec8 T glVDPAUMapSurfacesNV
00154f58 T glVDPAURegisterOutputSurfaceNV
00154ffc T glVDPAURegisterVideoSurfaceNV
001550a0 T glVDPAUSurfaceAccessNV
00155130 T glVDPAUUnmapSurfacesNV
001551c0 T glVDPAUUnregisterSurfaceNV
00104a3c T glVertex2d
00104ad8 T glVertex2dv
00104b60 T glVertex2f
00104bf0 T glVertex2fv
0014f28c T glVertex2hNV
0014f31c T glVertex2hvNV
00104c78 T glVertex2i
00104d04 T glVertex2iv
00104d8c T glVertex2s
00104e1c T glVertex2sv
00104ea4 T glVertex3d
00104f40 T glVertex3dv
00104fc8 T glVertex3f
00105060 T glVertex3fv
0014f3a4 T glVertex3hNV
0014f43c T glVertex3hvNV
001050e8 T glVertex3i
0010517c T glVertex3iv
00105204 T glVertex3s
0010529c T glVertex3sv
00105324 T glVertex4d
001053c0 T glVertex4dv
00105448 T glVertex4f
001054e8 T glVertex4fv
0014f4c4 T glVertex4hNV
0014f564 T glVertex4hvNV
00105570 T glVertex4i
0010560c T glVertex4iv
00105694 T glVertex4s
00105734 T glVertex4sv
001199a0 T glVertexArrayAttribBinding
00119a34 T glVertexArrayAttribFormat
00119ae4 T glVertexArrayAttribIFormat
00119b84 T glVertexArrayAttribLFormat
00119c24 T glVertexArrayBindingDivisor
00129304 T glVertexArrayBindVertexBufferEXT
0013d124 T glVertexArrayColorOffsetEXT
0013d1c4 T glVertexArrayEdgeFlagOffsetEXT
00119cb8 T glVertexArrayElementBuffer
0013d264 T glVertexArrayFogCoordOffsetEXT
0013d304 T glVertexArrayIndexOffsetEXT
0013d3a4 T glVertexArrayMultiTexCoordOffsetEXT
0013d444 T glVertexArrayNormalOffsetEXT
00114358 T glVertexArrayParameteriAPPLE
001143e8 T glVertexArrayRangeAPPLE
001552c4 T glVertexArrayRangeNV
0013d4e4 T glVertexArraySecondaryColorOffsetEXT
0013d584 T glVertexArrayTexCoordOffsetEXT
001293a4 T glVertexArrayVertexAttribBindingEXT
0012943c T glVertexArrayVertexAttribFormatEXT
001294ec T glVertexArrayVertexAttribIFormatEXT
0013d624 T glVertexArrayVertexAttribIOffsetEXT
0012958c T glVertexArrayVertexAttribLFormatEXT
00145238 T glVertexArrayVertexAttribLOffsetEXT
0013d6c4 T glVertexArrayVertexAttribOffsetEXT
0012962c T glVertexArrayVertexBindingDivisorEXT
00119d48 T glVertexArrayVertexBuffer
00119de8 T glVertexArrayVertexBuffers
0013d784 T glVertexArrayVertexOffsetEXT
0010cc9c T glVertexAttrib1d
0012b488 T glVertexAttrib1dARB
001573c4 T glVertexAttrib1dNV
0010cd34 T glVertexAttrib1dv
0012b520 T glVertexAttrib1dvARB
0015745c T glVertexAttrib1dvNV
0010cdc0 T glVertexAttrib1f
0012b5b0 T glVertexAttrib1fARB
001574ec T glVertexAttrib1fNV
0010ce50 T glVertexAttrib1fv
0012b63c T glVertexAttrib1fvARB
0015757c T glVertexAttrib1fvNV
0014f5ec T glVertexAttrib1hNV
0014f67c T glVertexAttrib1hvNV
0010cee0 T glVertexAttrib1s
0012b6cc T glVertexAttrib1sARB
0015760c T glVertexAttrib1sNV
0010cf70 T glVertexAttrib1sv
0012b75c T glVertexAttrib1svARB
0015769c T glVertexAttrib1svNV
0010cffc T glVertexAttrib2d
0012b7ec T glVertexAttrib2dARB
0015772c T glVertexAttrib2dNV
0010d094 T glVertexAttrib2dv
0012b884 T glVertexAttrib2dvARB
001577c4 T glVertexAttrib2dvNV
0010d124 T glVertexAttrib2f
0012b914 T glVertexAttrib2fARB
00157854 T glVertexAttrib2fNV
0010d1bc T glVertexAttrib2fv
0012b9ac T glVertexAttrib2fvARB
001578ec T glVertexAttrib2fvNV
0014f70c T glVertexAttrib2hNV
0014f7a4 T glVertexAttrib2hvNV
0010d248 T glVertexAttrib2s
0012ba3c T glVertexAttrib2sARB
0015797c T glVertexAttrib2sNV
0010d2e0 T glVertexAttrib2sv
0012bad4 T glVertexAttrib2svARB
00157a14 T glVertexAttrib2svNV
0010d370 T glVertexAttrib3d
0012bb64 T glVertexAttrib3dARB
00157aa4 T glVertexAttrib3dNV
0010d408 T glVertexAttrib3dv
0012bbfc T glVertexAttrib3dvARB
00157b3c T glVertexAttrib3dvNV
0010d494 T glVertexAttrib3f
0012bc8c T glVertexAttrib3fARB
00157bcc T glVertexAttrib3fNV
0010d534 T glVertexAttrib3fv
0012bd2c T glVertexAttrib3fvARB
00157c6c T glVertexAttrib3fvNV
0014f834 T glVertexAttrib3hNV
0014f8d0 T glVertexAttrib3hvNV
0010d5c4 T glVertexAttrib3s
0012bdbc T glVertexAttrib3sARB
00157cf8 T glVertexAttrib3sNV
0010d664 T glVertexAttrib3sv
0012be5c T glVertexAttrib3svARB
00157d98 T glVertexAttrib3svNV
0010daf8 T glVertexAttrib4bv
0012c2f4 T glVertexAttrib4bvARB
0010db84 T glVertexAttrib4d
0012c384 T glVertexAttrib4dARB
00157e28 T glVertexAttrib4dNV
0010dc1c T glVertexAttrib4dv
0012c41c T glVertexAttrib4dvARB
00157ec0 T glVertexAttrib4dvNV
0010dcac T glVertexAttrib4f
0012c4ac T glVertexAttrib4fARB
00157f50 T glVertexAttrib4fNV
0010dd4c T glVertexAttrib4fv
0012c54c T glVertexAttrib4fvARB
00157ff0 T glVertexAttrib4fvNV
0014f960 T glVertexAttrib4hNV
0014fa0c T glVertexAttrib4hvNV
0010ddd8 T glVertexAttrib4iv
0012c5dc T glVertexAttrib4ivARB
0010d6f0 T glVertexAttrib4Nbv
0012beec T glVertexAttrib4NbvARB
0010d780 T glVertexAttrib4Niv
0012bf78 T glVertexAttrib4NivARB
0010d810 T glVertexAttrib4Nsv
0012c008 T glVertexAttrib4NsvARB
0010d8a0 T glVertexAttrib4Nub
0012c098 T glVertexAttrib4NubARB
0010d948 T glVertexAttrib4Nubv
0012c144 T glVertexAttrib4NubvARB
0010d9d8 T glVertexAttrib4Nuiv
0012c1d4 T glVertexAttrib4NuivARB
0010da68 T glVertexAttrib4Nusv
0012c264 T glVertexAttrib4NusvARB
0010de68 T glVertexAttrib4s
0012c66c T glVertexAttrib4sARB
00158080 T glVertexAttrib4sNV
0010df14 T glVertexAttrib4sv
0012c718 T glVertexAttrib4svARB
0015812c T glVertexAttrib4svNV
001581bc T glVertexAttrib4ubNV
0010dfa4 T glVertexAttrib4ubv
0012c7a8 T glVertexAttrib4ubvARB
00158268 T glVertexAttrib4ubvNV
0010e030 T glVertexAttrib4uiv
0012c838 T glVertexAttrib4uivARB
0010e0c0 T glVertexAttrib4usv
0012c8c4 T glVertexAttrib4usvARB
00130918 T glVertexAttribArrayObjectATI
001296c4 T glVertexAttribBinding
00110aa0 T glVertexAttribDivisor
00112654 T glVertexAttribDivisorANGLE
0011d81c T glVertexAttribDivisorARB
00129754 T glVertexAttribFormat
00156394 T glVertexAttribFormatNV
0010fa5c T glVertexAttribI1i
00140278 T glVertexAttribI1iEXT
0010fae8 T glVertexAttribI1iv
00140308 T glVertexAttribI1ivEXT
0010fb78 T glVertexAttribI1ui
00140398 T glVertexAttribI1uiEXT
0010fc08 T glVertexAttribI1uiv
00140428 T glVertexAttribI1uivEXT
0010fc98 T glVertexAttribI2i
001404b8 T glVertexAttribI2iEXT
0010fd2c T glVertexAttribI2iv
00140550 T glVertexAttribI2ivEXT
0010fdbc T glVertexAttribI2ui
001405e0 T glVertexAttribI2uiEXT
0010fe54 T glVertexAttribI2uiv
00140678 T glVertexAttribI2uivEXT
0010fee4 T glVertexAttribI3i
00140708 T glVertexAttribI3iEXT
0010ff80 T glVertexAttribI3iv
001407a8 T glVertexAttribI3ivEXT
00110010 T glVertexAttribI3ui
00140834 T glVertexAttribI3uiEXT
001100b0 T glVertexAttribI3uiv
001408d4 T glVertexAttribI3uivEXT
00110140 T glVertexAttribI4bv
00140964 T glVertexAttribI4bvEXT
001101cc T glVertexAttribI4i
001409f4 T glVertexAttribI4iEXT
0011026c T glVertexAttribI4iv
00140a94 T glVertexAttribI4ivEXT
001102fc T glVertexAttribI4sv
00140b24 T glVertexAttribI4svEXT
0011038c T glVertexAttribI4ubv
00140bb4 T glVertexAttribI4ubvEXT
00110418 T glVertexAttribI4ui
00140c44 T glVertexAttribI4uiEXT
001104b8 T glVertexAttribI4uiv
00140ce4 T glVertexAttribI4uivEXT
00110548 T glVertexAttribI4usv
00140d74 T glVertexAttribI4usvEXT
001297f4 T glVertexAttribIFormat
00156434 T glVertexAttribIFormatNV
001105d8 T glVertexAttribIPointer
00140e04 T glVertexAttribIPointerEXT
00128d28 T glVertexAttribL1d
001452d4 T glVertexAttribL1dEXT
00128dc0 T glVertexAttribL1dv
0014536c T glVertexAttribL1dvEXT
00155484 T glVertexAttribL1i64NV
0015551c T glVertexAttribL1i64vNV
00115610 T glVertexAttribL1ui64ARB
001555ac T glVertexAttribL1ui64NV
001156a8 T glVertexAttribL1ui64vARB
00155644 T glVertexAttribL1ui64vNV
00128e50 T glVertexAttribL2d
001453fc T glVertexAttribL2dEXT
00128ee8 T glVertexAttribL2dv
00145494 T glVertexAttribL2dvEXT
001556d4 T glVertexAttribL2i64NV
00155768 T glVertexAttribL2i64vNV
001557f8 T glVertexAttribL2ui64NV
00155890 T glVertexAttribL2ui64vNV
00128f78 T glVertexAttribL3d
00145524 T glVertexAttribL3dEXT
00129010 T glVertexAttribL3dv
001455bc T glVertexAttribL3dvEXT
00155920 T glVertexAttribL3i64NV
001559b8 T glVertexAttribL3i64vNV
00155a48 T glVertexAttribL3ui64NV
00155ae0 T glVertexAttribL3ui64vNV
0012909c T glVertexAttribL4d
0014564c T glVertexAttribL4dEXT
00129134 T glVertexAttribL4dv
001456e4 T glVertexAttribL4dvEXT
00155b70 T glVertexAttribL4i64NV
00155c08 T glVertexAttribL4i64vNV
00155c98 T glVertexAttribL4ui64NV
00155d30 T glVertexAttribL4ui64vNV
00129894 T glVertexAttribLFormat
00155dc0 T glVertexAttribLFormatNV
001291c4 T glVertexAttribLPointer
00145774 T glVertexAttribLPointerEXT
0012d97c T glVertexAttribP1ui
0012da1c T glVertexAttribP1uiv
0012dabc T glVertexAttribP2ui
0012db58 T glVertexAttribP2uiv
0012dbf8 T glVertexAttribP3ui
0012dc98 T glVertexAttribP3uiv
0012dd38 T glVertexAttribP4ui
0012ddd8 T glVertexAttribP4uiv
00111650 T glVertexAttribParameteriAMD
0010e150 T glVertexAttribPointer
0012c954 T glVertexAttribPointerARB
001582f8 T glVertexAttribPointerNV
00158398 T glVertexAttribs1dvNV
00158430 T glVertexAttribs1fvNV
0014fa9c T glVertexAttribs1hvNV
001584c8 T glVertexAttribs1svNV
00158560 T glVertexAttribs2dvNV
001585f8 T glVertexAttribs2fvNV
0014fb34 T glVertexAttribs2hvNV
0015868c T glVertexAttribs2svNV
00158724 T glVertexAttribs3dvNV
001587bc T glVertexAttribs3fvNV
0014fbcc T glVertexAttribs3hvNV
00158854 T glVertexAttribs3svNV
001588ec T glVertexAttribs4dvNV
00158984 T glVertexAttribs4fvNV
0014fc64 T glVertexAttribs4hvNV
00158a1c T glVertexAttribs4svNV
00158ab4 T glVertexAttribs4ubvNV
00129934 T glVertexBindingDivisor
001299c4 T glVertexBlendARB
00131024 T glVertexBlendEnvfATI
001310b4 T glVertexBlendEnviATI
001564d4 T glVertexFormatNV
0012de78 T glVertexP2ui
0012df08 T glVertexP2uiv
0012df98 T glVertexP3ui
0012e028 T glVertexP3uiv
0012e0b8 T glVertexP4ui
0012e148 T glVertexP4uiv
00106908 T glVertexPointer
00145100 T glVertexPointerEXT
00147eb8 T glVertexPointerListIBM
001484b0 T glVertexPointervINTEL
00131144 T glVertexStream1dATI
001311dc T glVertexStream1dvATI
0013126c T glVertexStream1fATI
001312f8 T glVertexStream1fvATI
00131388 T glVertexStream1iATI
00131418 T glVertexStream1ivATI
001314a8 T glVertexStream1sATI
00131538 T glVertexStream1svATI
001315c8 T glVertexStream2dATI
00131660 T glVertexStream2dvATI
001316f0 T glVertexStream2fATI
00131788 T glVertexStream2fvATI
00131818 T glVertexStream2iATI
001318b0 T glVertexStream2ivATI
00131940 T glVertexStream2sATI
001319d8 T glVertexStream2svATI
00131a68 T glVertexStream3dATI
00131b00 T glVertexStream3dvATI
00131b90 T glVertexStream3fATI
00131c2c T glVertexStream3fvATI
00131cbc T glVertexStream3iATI
00131d5c T glVertexStream3ivATI
00131dec T glVertexStream3sATI
00131e8c T glVertexStream3svATI
00131f1c T glVertexStream4dATI
00131fb4 T glVertexStream4dvATI
00132044 T glVertexStream4fATI
001320e4 T glVertexStream4fvATI
00132174 T glVertexStream4iATI
00132214 T glVertexStream4ivATI
001322a4 T glVertexStream4sATI
00132350 T glVertexStream4svATI
001470f0 T glVertexWeightfEXT
00147178 T glVertexWeightfvEXT
0014fcfc T glVertexWeighthNV
0014fd84 T glVertexWeighthvNV
00147050 T glVertexWeightPointerEXT
00159010 T glVideoCaptureNV
001590ac T glVideoCaptureStreamParameterdvNV
0015914c T glVideoCaptureStreamParameterfvNV
001591ec T glVideoCaptureStreamParameterivNV
001057bc T glViewport
0012e5fc T glViewportArrayv
0012e694 T glViewportIndexedf
0012e734 T glViewportIndexedfv
001266cc T glWaitSync
00113ecc T glWaitSyncAPPLE
00129ae8 T glWeightbvARB
00129b78 T glWeightdvARB
00129c08 T glWeightfvARB
00129c98 T glWeightivARB
00152434 T glWeightPathsNV
00129a48 T glWeightPointerARB
0015a104 T glWeightPointerOES
00129d28 T glWeightsvARB
00129db8 T glWeightubvARB
00129e48 T glWeightuivARB
00129ed8 T glWeightusvARB
00109844 T glWindowPos2d
0012e7c4 T glWindowPos2dARB
0014978c T glWindowPos2dMESA
001098e0 T glWindowPos2dv
0012e864 T glWindowPos2dvARB
0014982c T glWindowPos2dvMESA
00109968 T glWindowPos2f
0012e8ec T glWindowPos2fARB
001498b4 T glWindowPos2fMESA
001099f8 T glWindowPos2fv
0012e97c T glWindowPos2fvARB
00149944 T glWindowPos2fvMESA
00109a80 T glWindowPos2i
0012ea04 T glWindowPos2iARB
001499cc T glWindowPos2iMESA
00109b0c T glWindowPos2iv
0012ea94 T glWindowPos2ivARB
00149a5c T glWindowPos2ivMESA
00109b94 T glWindowPos2s
0012eb1c T glWindowPos2sARB
00149ae0 T glWindowPos2sMESA
00109c24 T glWindowPos2sv
0012ebac T glWindowPos2svARB
00149b70 T glWindowPos2svMESA
00109cac T glWindowPos3d
0012ec34 T glWindowPos3dARB
00149bf8 T glWindowPos3dMESA
00109d48 T glWindowPos3dv
0012ecd4 T glWindowPos3dvARB
00149c98 T glWindowPos3dvMESA
00109dd0 T glWindowPos3f
0012ed5c T glWindowPos3fARB
00149d20 T glWindowPos3fMESA
00109e68 T glWindowPos3fv
0012edf0 T glWindowPos3fvARB
00149db8 T glWindowPos3fvMESA
00109ef0 T glWindowPos3i
0012ee78 T glWindowPos3iARB
00149e40 T glWindowPos3iMESA
00109f84 T glWindowPos3iv
0012ef10 T glWindowPos3ivARB
00149ed8 T glWindowPos3ivMESA
0010a00c T glWindowPos3s
0012ef98 T glWindowPos3sARB
00149f60 T glWindowPos3sMESA
0010a0a4 T glWindowPos3sv
0012f030 T glWindowPos3svARB
00149ff8 T glWindowPos3svMESA
0014a080 T glWindowPos4dMESA
0014a120 T glWindowPos4dvMESA
0014a1a8 T glWindowPos4fMESA
0014a248 T glWindowPos4fvMESA
0014a2d0 T glWindowPos4iMESA
0014a370 T glWindowPos4ivMESA
0014a3f4 T glWindowPos4sMESA
0014a494 T glWindowPos4svMESA
00146fb0 T glWriteMaskEXT
         U gmtime
004e669c T hash_table_call_foreach
004e646c T hash_table_clear
004e6398 T hash_table_ctor
004e6400 T hash_table_dtor
004e64d0 T hash_table_find
004e6534 T hash_table_insert
004e6740 T hash_table_pointer_compare
004e6738 T hash_table_pointer_hash
004e6628 T hash_table_remove
004e65a0 T hash_table_replace
004e6704 T hash_table_string_hash
         U inet_ntop
         U isalnum
         U isalpha
         U islower
         U isprint
         U isspace
         U isxdigit
004a2130 T jsonsl_destroy
004a2064 T jsonsl_dump_global_metrics
004a213c T jsonsl_feed
004a3120 T jsonsl_jpr_destroy
004a3150 T jsonsl_jpr_match
004a329c T jsonsl_jpr_match_state
004a3260 T jsonsl_jpr_match_state_cleanup
004a31ec T jsonsl_jpr_match_state_init
004a2dcc T jsonsl_jpr_new
004a2068 T jsonsl_new
004a20d4 T jsonsl_reset
004a2c80 T jsonsl_strerror
004a348c T jsonsl_strmatchtype
004a2ca8 T jsonsl_strtype
004a34b8 T jsonsl_util_unescape_ex
         U kill
         U listen
         U localtime
         U lrand48
         U malloc
004a1f98 T MD5Final
004a1420 T MD5Init
004a1574 T MD5Transform
004a1464 T MD5Update
         U memalign
         U memchr
         U memcmp
00495d20 T mg_close_connection
00495eb4 T mg_connect
00492f5c T mg_cry
00496298 T mg_download
00493dfc T mg_get_builtin_mime_type
00493bdc T mg_get_cookie
00493118 T mg_get_header
00492e78 T mg_get_option
00492efc T mg_get_ports
004930c4 T mg_get_request_info
00492e68 T mg_get_valid_options
00493a4c T mg_get_var
00493a70 T mg_get_var2
0049537c T mg_lock
00493ec8 T mg_md5
004942c8 T mg_modify_passwords_file
004938ac T mg_printf
00493228 T mg_read
004946a8 T mg_send_file
00495b04 T mg_set_request_handler
00497314 T mg_start
004931ac T mg_start_thread
00497110 T mg_stop
004930c8 T mg_strncasecmp
00495384 T mg_unlock
0049538c T mg_upload
00493904 T mg_url_decode
004945ac T mg_url_encode
004930b4 T mg_version
00493744 T mg_vprintf
004933b4 T mg_write
         U mkdir
         U opendir
         U pclose
         U pipe
0021e59c T plugin_eglBindAPI
0021e494 T plugin_eglBindTexImage
0021d848 T plugin_eglChooseConfig
0021ca70 T plugin_eglClientWaitSyncKHR
0021d480 T plugin_eglClientWaitSyncNV
0021d8d4 T plugin_eglCopyBuffers
0021d30c T plugin_eglCoverageMaskNV
0021d380 T plugin_eglCoverageOperationNV
0021d958 T plugin_eglCreateContext
0021d204 T plugin_eglCreateDRMImageMESA
0021d50c T plugin_eglCreateFenceSyncNV
0021cc80 T plugin_eglCreateImageKHR
0021e610 T plugin_eglCreatePbufferFromClientBuffer
0021d9e4 T plugin_eglCreatePbufferSurface
0021da68 T plugin_eglCreatePixmapSurface
0021cffc T plugin_eglCreateStreamFromFileDescriptorKHR
0021d0f4 T plugin_eglCreateStreamProducerSurfaceKHR
0021caf4 T plugin_eglCreateSyncKHR
0021daf4 T plugin_eglCreateWindowSurface
0021db80 T plugin_eglDestroyContext
0021cd0c T plugin_eglDestroyImageKHR
0021dbfc T plugin_eglDestroySurface
0021cb78 T plugin_eglDestroySyncKHR
0021d590 T plugin_eglDestroySyncNV
0021d280 T plugin_eglExportDRMImageMESA
0021d604 T plugin_eglFenceNV
0021dc78 T plugin_eglGetConfigAttrib
0021dd04 T plugin_eglGetConfigs
0021dd90 T plugin_eglGetCurrentContext
0021ddf8 T plugin_eglGetCurrentDisplay
0021de60 T plugin_eglGetCurrentSurface
0021ded4 T plugin_eglGetDisplay
0021df48 T plugin_eglGetError
0021dfb0 T plugin_eglGetProcAddress
0021d078 T plugin_eglGetStreamFileDescriptorKHR
0021cbf4 T plugin_eglGetSyncAttribKHR
0021d678 T plugin_eglGetSyncAttribNV
0021d778 T plugin_eglGetSystemTimeFrequencyNV
0021d7e0 T plugin_eglGetSystemTimeNV
0021e024 T plugin_eglInitialize
0021cd88 T plugin_eglLockSurfaceKHR
0021e0a8 T plugin_eglMakeCurrent
0021d3f4 T plugin_eglPostSubBufferNV
0021e69c T plugin_eglQueryAPI
0021e134 T plugin_eglQueryContext
0021e1c0 T plugin_eglQueryString
0021e23c T plugin_eglQuerySurface
0021c9e4 T plugin_eglQuerySurfacePointerANGLE
0021e518 T plugin_eglReleaseTexImage
0021e704 T plugin_eglReleaseThread
0021d6fc T plugin_eglSignalSyncNV
0021ce88 T plugin_eglStreamConsumerAcquireKHR
0021cf04 T plugin_eglStreamConsumerGLTextureExternalKHR
0021cf80 T plugin_eglStreamConsumerReleaseKHR
0021e76c T plugin_eglSurfaceAttrib
0021e2c8 T plugin_eglSwapBuffers
0021e7f8 T plugin_eglSwapInterval
0021e344 T plugin_eglTerminate
0021ce0c T plugin_eglUnlockSurfaceKHR
0021e874 T plugin_eglWaitClient
0021e3b8 T plugin_eglWaitGL
0021e420 T plugin_eglWaitNative
0021d180 T plugin_eglWaitSyncKHR
001c131c T plugin_glAccum
002014e0 T plugin_glActiveProgramEXT
001e35c0 T plugin_glActiveShaderProgram
002017dc T plugin_glActiveStencilFaceEXT
001cbb00 T plugin_glActiveTexture
001e08e0 T plugin_glActiveTextureARB
0020fec0 T plugin_glActiveVaryingNV
0021c954 T plugin_glAddSwapHintRectWIN
001efa74 T plugin_glAlphaFragmentOp1ATI
001efb04 T plugin_glAlphaFragmentOp2ATI
001efb94 T plugin_glAlphaFragmentOp3ATI
001c1398 T plugin_glAlphaFunc
00216154 T plugin_glAlphaFuncQCOM
00216b40 T plugin_glAlphaFuncx
001ff834 T plugin_glApplyTextureEXT
00211de4 T plugin_glAreProgramsResidentNV
001ca95c T plugin_glAreTexturesResident
00201ee8 T plugin_glAreTexturesResidentEXT
001ca9e4 T plugin_glArrayElement
002028d0 T plugin_glArrayElementEXT
001f04ac T plugin_glArrayObjectATI
00218d48 T plugin_glAsyncMarkerSGIX
001e5860 T plugin_glAttachObjectARB
001cf3e0 T plugin_glAttachShader
001c1414 T plugin_glBegin
001d2738 T plugin_glBeginConditionalRender
00207aa4 T plugin_glBeginConditionalRenderNV
00207218 T plugin_glBeginConditionalRenderNVX
001efc20 T plugin_glBeginFragmentShaderATI
0020c4e0 T plugin_glBeginOcclusionQueryNV
001d537c T plugin_glBeginPerfMonitorAMD
001cea3c T plugin_glBeginQuery
001d5f14 T plugin_glBeginQueryANGLE
001e1a58 T plugin_glBeginQueryARB
001ffef0 T plugin_glBeginQueryEXT
001e9084 T plugin_glBeginQueryIndexed
00200b74 T plugin_glBeginSceneEXT
001d27b8 T plugin_glBeginTransformFeedback
00202528 T plugin_glBeginTransformFeedbackEXT
0020ff40 T plugin_glBeginTransformFeedbackNV
0020336c T plugin_glBeginVertexShaderEXT
00213fc4 T plugin_glBeginVideoCaptureNV
001cf460 T plugin_glBindAttribLocation
001ed3d4 T plugin_glBindAttribLocationARB
001ceab8 T plugin_glBindBuffer
001eade0 T plugin_glBindBufferARB
001e959c T plugin_glBindBufferBase
002025a0 T plugin_glBindBufferBaseEXT
0020ffb8 T plugin_glBindBufferBaseNV
00202624 T plugin_glBindBufferOffsetEXT
00210040 T plugin_glBindBufferOffsetNV
001e9624 T plugin_glBindBufferRange
002026b4 T plugin_glBindBufferRangeEXT
002100d0 T plugin_glBindBufferRangeNV
001e0404 T plugin_glBindBuffersBase
001e0490 T plugin_glBindBuffersRange
001d2830 T plugin_glBindFragDataLocation
001fe030 T plugin_glBindFragDataLocationEXT
001d89dc T plugin_glBindFragDataLocationIndexed
001efc8c T plugin_glBindFragmentShaderATI
001dd034 T plugin_glBindFramebuffer
001fd4a4 T plugin_glBindFramebufferEXT
002147c8 T plugin_glBindFramebufferOES
001e5758 T plugin_glBindImageTexture
00201654 T plugin_glBindImageTextureEXT
001e0520 T plugin_glBindImageTextures
002033d8 T plugin_glBindLightParameterEXT
00203458 T plugin_glBindMaterialParameterEXT
001f42c8 T plugin_glBindMultiTextureEXT
002034d8 T plugin_glBindParameterEXT
001eb38c T plugin_glBindProgramARB
00211e6c T plugin_glBindProgramNV
001e3640 T plugin_glBindProgramPipeline
001dd0b4 T plugin_glBindRenderbuffer
001fd524 T plugin_glBindRenderbufferEXT
00214848 T plugin_glBindRenderbufferOES
001e2e7c T plugin_glBindSampler
001e05a8 T plugin_glBindSamplers
00203550 T plugin_glBindTexGenParameterEXT
001caa5c T plugin_glBindTexture
00201f70 T plugin_glBindTextureEXT
001e0630 T plugin_glBindTextures
001d95d8 T plugin_glBindTextureUnit
002035d8 T plugin_glBindTextureUnitParameterEXT
001e8d38 T plugin_glBindTransformFeedback
00210478 T plugin_glBindTransformFeedbackNV
001e9b10 T plugin_glBindVertexArray
001d75d8 T plugin_glBindVertexArrayAPPLE
00215ee4 T plugin_glBindVertexArrayOES
001ea234 T plugin_glBindVertexBuffer
001e06b4 T plugin_glBindVertexBuffers
00203658 T plugin_glBindVertexShaderEXT
0021403c T plugin_glBindVideoCaptureStreamBufferNV
002140cc T plugin_glBindVideoCaptureStreamTextureNV
001f30c4 T plugin_glBinormal3bEXT
001f314c T plugin_glBinormal3bvEXT
001f31c4 T plugin_glBinormal3dEXT
001f3254 T plugin_glBinormal3dvEXT
001f32cc T plugin_glBinormal3fEXT
001f3354 T plugin_glBinormal3fvEXT
001f33cc T plugin_glBinormal3iEXT
001f3454 T plugin_glBinormal3ivEXT
001f34cc T plugin_glBinormal3sEXT
001f3554 T plugin_glBinormal3svEXT
001f35cc T plugin_glBinormalPointerEXT
001c1488 T plugin_glBitmap
00205afc T plugin_glBlendBarrierKHR
002079b8 T plugin_glBlendBarrierNV
001cd2b0 T plugin_glBlendColor
001f2584 T plugin_glBlendColorEXT
001cd340 T plugin_glBlendEquation
001f2724 T plugin_glBlendEquationEXT
001d4868 T plugin_glBlendEquationi
001dc928 T plugin_glBlendEquationiARB
001d4e2c T plugin_glBlendEquationIndexedAMD
00214750 T plugin_glBlendEquationOES
001cf4e4 T plugin_glBlendEquationSeparate
001f2614 T plugin_glBlendEquationSeparateEXT
001d47e0 T plugin_glBlendEquationSeparatei
001dc8a0 T plugin_glBlendEquationSeparateiARB
001d4eac T plugin_glBlendEquationSeparateIndexedAMD
00214640 T plugin_glBlendEquationSeparateOES
001c1514 T plugin_glBlendFunc
001d4978 T plugin_glBlendFunci
001dca38 T plugin_glBlendFunciARB
001d4f34 T plugin_glBlendFuncIndexedAMD
001cd3b8 T plugin_glBlendFuncSeparate
001f2694 T plugin_glBlendFuncSeparateEXT
001d48e8 T plugin_glBlendFuncSeparatei
001dc9a8 T plugin_glBlendFuncSeparateiARB
001d4fbc T plugin_glBlendFuncSeparateIndexedAMD
002055c0 T plugin_glBlendFuncSeparateINGR
002146c0 T plugin_glBlendFuncSeparateOES
00207a24 T plugin_glBlendParameteriNV
001dd130 T plugin_glBlitFramebuffer
001d5c5c T plugin_glBlitFramebufferANGLE
001fd384 T plugin_glBlitFramebufferEXT
00208dc8 T plugin_glBlitFramebufferNV
001d9658 T plugin_glBlitNamedFramebuffer
00211798 T plugin_glBufferAddressRangeNV
001ceb38 T plugin_glBufferData
001eae60 T plugin_glBufferDataARB
001e75ec T plugin_glBufferPageCommitmentARB
001d6c4c T plugin_glBufferParameteriAPPLE
00206320 T plugin_glBufferRegionEnabled
001d8aec T plugin_glBufferStorage
001cebc8 T plugin_glBufferSubData
001eaef0 T plugin_glBufferSubDataARB
001c1590 T plugin_glCallList
001c1604 T plugin_glCallLists
001dd1c0 T plugin_glCheckFramebufferStatus
001fd5a4 T plugin_glCheckFramebufferStatusEXT
002148c8 T plugin_glCheckFramebufferStatusOES
001d96e4 T plugin_glCheckNamedFramebufferStatus
001f4350 T plugin_glCheckNamedFramebufferStatusEXT
001d28b4 T plugin_glClampColor
001d9068 T plugin_glClampColorARB
001c1688 T plugin_glClear
001c16fc T plugin_glClearAccum
001d8c90 T plugin_glClearBufferData
001d2934 T plugin_glClearBufferfi
001d29c4 T plugin_glClearBufferfv
001d2a4c T plugin_glClearBufferiv
001d8d20 T plugin_glClearBufferSubData
001d2ad0 T plugin_glClearBufferuiv
001c1788 T plugin_glClearColor
00201bac T plugin_glClearColorIiEXT
00201c3c T plugin_glClearColorIuiEXT
00216bc0 T plugin_glClearColorx
001c1814 T plugin_glClearDepth
00207da0 T plugin_glClearDepthdNV
001d7cfc T plugin_glClearDepthf
002153a4 T plugin_glClearDepthfOES
00216c50 T plugin_glClearDepthx
001c1890 T plugin_glClearIndex
001d9764 T plugin_glClearNamedBufferData
001d8db0 T plugin_glClearNamedBufferDataEXT
001d97f4 T plugin_glClearNamedBufferSubData
001d8e3c T plugin_glClearNamedBufferSubDataEXT
001d9884 T plugin_glClearNamedFramebufferfi
001d9910 T plugin_glClearNamedFramebufferfv
001d99a0 T plugin_glClearNamedFramebufferiv
001d9a30 T plugin_glClearNamedFramebufferuiv
001c1904 T plugin_glClearStencil
001d8ecc T plugin_glClearTexImage
001d8f5c T plugin_glClearTexSubImage
001cbb78 T plugin_glClientActiveTexture
001e0958 T plugin_glClientActiveTextureARB
001f0ca0 T plugin_glClientActiveVertexStreamATI
001f43d0 T plugin_glClientAttribDefaultEXT
001e7804 T plugin_glClientWaitSync
001d7130 T plugin_glClientWaitSyncAPPLE
001d8fec T plugin_glClipControl
001c1978 T plugin_glClipPlane
00217b60 T plugin_glClipPlanef
00215424 T plugin_glClipPlanefOES
00217be0 T plugin_glClipPlanex
001c19f4 T plugin_glColor3b
001c1a78 T plugin_glColor3bv
001c1aec T plugin_glColor3d
001c1b78 T plugin_glColor3dv
001c1bec T plugin_glColor3f
001c1c70 T plugin_glColor3fv
0021b318 T plugin_glColor3fVertex3fSUN
0021b3a8 T plugin_glColor3fVertex3fvSUN
0020aa24 T plugin_glColor3hNV
0020aaac T plugin_glColor3hvNV
001c1ce4 T plugin_glColor3i
001c1d68 T plugin_glColor3iv
001c1ddc T plugin_glColor3s
001c1e60 T plugin_glColor3sv
001c1ed4 T plugin_glColor3ub
001c1f58 T plugin_glColor3ubv
001c1fcc T plugin_glColor3ui
001c2050 T plugin_glColor3uiv
001c20c4 T plugin_glColor3us
001c2148 T plugin_glColor3usv
001c21bc T plugin_glColor4b
001c2248 T plugin_glColor4bv
001c22bc T plugin_glColor4d
001c2348 T plugin_glColor4dv
001c23bc T plugin_glColor4f
0021b428 T plugin_glColor4fNormal3fVertex3fSUN
0021b4b8 T plugin_glColor4fNormal3fVertex3fvSUN
001c2448 T plugin_glColor4fv
0020ab24 T plugin_glColor4hNV
0020abb4 T plugin_glColor4hvNV
001c24bc T plugin_glColor4i
001c2548 T plugin_glColor4iv
001c25bc T plugin_glColor4s
001c2648 T plugin_glColor4sv
001c26bc T plugin_glColor4ub
001c2748 T plugin_glColor4ubv
0021b540 T plugin_glColor4ubVertex2fSUN
0021b5d0 T plugin_glColor4ubVertex2fvSUN
0021b650 T plugin_glColor4ubVertex3fSUN
0021b6dc T plugin_glColor4ubVertex3fvSUN
001c27bc T plugin_glColor4ui
001c2848 T plugin_glColor4uiv
001c28bc T plugin_glColor4us
001c2948 T plugin_glColor4usv
00216cc8 T plugin_glColor4x
00211828 T plugin_glColorFormatNV
001efd04 T plugin_glColorFragmentOp1ATI
001efd94 T plugin_glColorFragmentOp2ATI
001efe24 T plugin_glColorFragmentOp3ATI
001c29bc T plugin_glColorMask
001d2b58 T plugin_glColorMaski
001fc2dc T plugin_glColorMaskIndexedEXT
001c2a48 T plugin_glColorMaterial
001ed56c T plugin_glColorP3ui
001ed5ec T plugin_glColorP3uiv
001ed66c T plugin_glColorP4ui
001ed6ec T plugin_glColorP4uiv
001caadc T plugin_glColorPointer
00202948 T plugin_glColorPointerEXT
00205028 T plugin_glColorPointerListIBM
002057d8 T plugin_glColorPointervINTEL
001de954 T plugin_glColorSubTable
001f279c T plugin_glColorSubTableEXT
001de9e4 T plugin_glColorTable
00200270 T plugin_glColorTableEXT
001dea74 T plugin_glColorTableParameterfv
0021a6a0 T plugin_glColorTableParameterfvSGI
001deaf8 T plugin_glColorTableParameteriv
0021a728 T plugin_glColorTableParameterivSGI
0021a7b0 T plugin_glColorTableSGI
0020eaa4 T plugin_glCombinerInputNV
0020eb34 T plugin_glCombinerOutputNV
0020ebfc T plugin_glCombinerParameterfNV
0020ec7c T plugin_glCombinerParameterfvNV
0020ecfc T plugin_glCombinerParameteriNV
0020ed7c T plugin_glCombinerParameterivNV
0020f1d8 T plugin_glCombinerStageParameterfvNV
001cf564 T plugin_glCompileShader
001e58e0 T plugin_glCompileShaderARB
001e72b0 T plugin_glCompileShaderIncludeARB
001f4448 T plugin_glCompressedMultiTexImage1DEXT
001f44d8 T plugin_glCompressedMultiTexImage2DEXT
001f4568 T plugin_glCompressedMultiTexImage3DEXT
001f45f8 T plugin_glCompressedMultiTexSubImage1DEXT
001f4688 T plugin_glCompressedMultiTexSubImage2DEXT
001f4714 T plugin_glCompressedMultiTexSubImage3DEXT
001cbbec T plugin_glCompressedTexImage1D
001e7eb4 T plugin_glCompressedTexImage1DARB
001cbc7c T plugin_glCompressedTexImage2D
001e7f44 T plugin_glCompressedTexImage2DARB
001cbd0c T plugin_glCompressedTexImage3D
001e7fd4 T plugin_glCompressedTexImage3DARB
002156c0 T plugin_glCompressedTexImage3DOES
001cbd9c T plugin_glCompressedTexSubImage1D
001e8064 T plugin_glCompressedTexSubImage1DARB
001cbe28 T plugin_glCompressedTexSubImage2D
001e80f4 T plugin_glCompressedTexSubImage2DARB
001cbeb8 T plugin_glCompressedTexSubImage3D
001e8184 T plugin_glCompressedTexSubImage3DARB
00215750 T plugin_glCompressedTexSubImage3DOES
001f47a4 T plugin_glCompressedTextureImage1DEXT
001f4834 T plugin_glCompressedTextureImage2DEXT
001f48c4 T plugin_glCompressedTextureImage3DEXT
001d9ac0 T plugin_glCompressedTextureSubImage1D
001f4954 T plugin_glCompressedTextureSubImage1DEXT
001d9b4c T plugin_glCompressedTextureSubImage2D
001f49e4 T plugin_glCompressedTextureSubImage2DEXT
001d9bdc T plugin_glCompressedTextureSubImage3D
001f4a74 T plugin_glCompressedTextureSubImage3DEXT
001deb80 T plugin_glConvolutionFilter1D
001f29a8 T plugin_glConvolutionFilter1DEXT
001dec10 T plugin_glConvolutionFilter2D
001f2a38 T plugin_glConvolutionFilter2DEXT
001deca0 T plugin_glConvolutionParameterf
001f2ac8 T plugin_glConvolutionParameterfEXT
001ded24 T plugin_glConvolutionParameterfv
001f2b50 T plugin_glConvolutionParameterfvEXT
001dedac T plugin_glConvolutionParameteri
001f2bd8 T plugin_glConvolutionParameteriEXT
001dee34 T plugin_glConvolutionParameteriv
001f2c60 T plugin_glConvolutionParameterivEXT
001d9274 T plugin_glCopyBufferSubData
00207b90 T plugin_glCopyBufferSubDataNV
001deebc T plugin_glCopyColorSubTable
001f282c T plugin_glCopyColorSubTableEXT
001def48 T plugin_glCopyColorTable
0021a840 T plugin_glCopyColorTableSGI
001defd8 T plugin_glCopyConvolutionFilter1D
001f2ce8 T plugin_glCopyConvolutionFilter1DEXT
001df068 T plugin_glCopyConvolutionFilter2D
001f2d78 T plugin_glCopyConvolutionFilter2DEXT
001d9304 T plugin_glCopyImageSubData
00207c20 T plugin_glCopyImageSubDataNV
001f4b04 T plugin_glCopyMultiTexImage1DEXT
001f4b94 T plugin_glCopyMultiTexImage2DEXT
001f4c24 T plugin_glCopyMultiTexSubImage1DEXT
001f4cb4 T plugin_glCopyMultiTexSubImage2DEXT
001f4d44 T plugin_glCopyMultiTexSubImage3DEXT
001d9c6c T plugin_glCopyNamedBufferSubData
0020c9f8 T plugin_glCopyPathNV
001c2ac4 T plugin_glCopyPixels
001cab68 T plugin_glCopyTexImage1D
001f3be0 T plugin_glCopyTexImage1DEXT
001cabf8 T plugin_glCopyTexImage2D
001f3c70 T plugin_glCopyTexImage2DEXT
001cac88 T plugin_glCopyTexSubImage1D
001f3d00 T plugin_glCopyTexSubImage1DEXT
001cad18 T plugin_glCopyTexSubImage2D
001f3d90 T plugin_glCopyTexSubImage2DEXT
001cb8c4 T plugin_glCopyTexSubImage3D
001f3e20 T plugin_glCopyTexSubImage3DEXT
002157e0 T plugin_glCopyTexSubImage3DOES
001f4dd4 T plugin_glCopyTextureImage1DEXT
001f4e64 T plugin_glCopyTextureImage2DEXT
001d6530 T plugin_glCopyTextureLevelsAPPLE
001d9cfc T plugin_glCopyTextureSubImage1D
001f4ef4 T plugin_glCopyTextureSubImage1DEXT
001d9d88 T plugin_glCopyTextureSubImage2D
001f4f84 T plugin_glCopyTextureSubImage2DEXT
001d9e18 T plugin_glCopyTextureSubImage3D
001f5010 T plugin_glCopyTextureSubImage3DEXT
00207cb0 T plugin_glCoverageMaskNV
00207d28 T plugin_glCoverageOperationNV
0020ca78 T plugin_glCoverFillPathInstancedNV
0020cb08 T plugin_glCoverFillPathNV
0020cb88 T plugin_glCoverStrokePathInstancedNV
0020cc18 T plugin_glCoverStrokePathNV
001d9ea8 T plugin_glCreateBuffers
001d9f28 T plugin_glCreateFramebuffers
001cf5dc T plugin_glCreateProgram
001e5958 T plugin_glCreateProgramObjectARB
001d9fa4 T plugin_glCreateProgramPipelines
001da024 T plugin_glCreateQueries
001da0ac T plugin_glCreateRenderbuffers
001da12c T plugin_glCreateSamplers
001cf648 T plugin_glCreateShader
001e59c4 T plugin_glCreateShaderObjectARB
00201554 T plugin_glCreateShaderProgramEXT
001e36b8 T plugin_glCreateShaderProgramv
001d8c08 T plugin_glCreateSyncFromCLeventARB
001da1a8 T plugin_glCreateTextures
001da230 T plugin_glCreateTransformFeedbacks
001da2b0 T plugin_glCreateVertexArrays
001c2b50 T plugin_glCullFace
001f3eac T plugin_glCullParameterdvEXT
001f3f2c T plugin_glCullParameterfvEXT
001e0180 T plugin_glCurrentPaletteMatrixARB
0021520c T plugin_glCurrentPaletteMatrixOES
00205b68 T plugin_glDebugMessageCallback
001d4bf0 T plugin_glDebugMessageCallbackAMD
001d9394 T plugin_glDebugMessageCallbackARB
00205be8 T plugin_glDebugMessageControl
001d9414 T plugin_glDebugMessageControlARB
001d4c70 T plugin_glDebugMessageEnableAMD
00205c90 T plugin_glDebugMessageInsert
001d4d10 T plugin_glDebugMessageInsertAMD
001d94b8 T plugin_glDebugMessageInsertARB
0021a230 T plugin_glDeformationMap3dSGIX
0021a2b8 T plugin_glDeformationMap3fSGIX
0021a1b8 T plugin_glDeformSGIX
00218dc0 T plugin_glDeleteAsyncMarkersSGIX
0020638c T plugin_glDeleteBufferRegion
001cec58 T plugin_glDeleteBuffers
001eaf80 T plugin_glDeleteBuffersARB
001d6874 T plugin_glDeleteFencesAPPLE
00208704 T plugin_glDeleteFencesNV
001efeb4 T plugin_glDeleteFragmentShaderATI
001dd238 T plugin_glDeleteFramebuffers
001fd61c T plugin_glDeleteFramebuffersEXT
00214940 T plugin_glDeleteFramebuffersOES
001c2bc4 T plugin_glDeleteLists
001e7340 T plugin_glDeleteNamedStringARB
001d51f0 T plugin_glDeleteNamesAMD
001e5a3c T plugin_glDeleteObjectARB
0020c554 T plugin_glDeleteOcclusionQueriesNV
0020cc98 T plugin_glDeletePathsNV
001d53f4 T plugin_glDeletePerfMonitorsAMD
001cf6bc T plugin_glDeleteProgram
001e3740 T plugin_glDeleteProgramPipelines
001eb40c T plugin_glDeleteProgramsARB
00211eec T plugin_glDeleteProgramsNV
001cecd4 T plugin_glDeleteQueries
001d5f94 T plugin_glDeleteQueriesANGLE
001e1ad8 T plugin_glDeleteQueriesARB
001fff70 T plugin_glDeleteQueriesEXT
001dd2b8 T plugin_glDeleteRenderbuffers
001fd69c T plugin_glDeleteRenderbuffersEXT
002149c0 T plugin_glDeleteRenderbuffersOES
001e2efc T plugin_glDeleteSamplers
001cf734 T plugin_glDeleteShader
001e7894 T plugin_glDeleteSync
001d71c0 T plugin_glDeleteSyncAPPLE
001cada4 T plugin_glDeleteTextures
00201ff0 T plugin_glDeleteTexturesEXT
001e8db8 T plugin_glDeleteTransformFeedbacks
002104f8 T plugin_glDeleteTransformFeedbacksNV
001e9b88 T plugin_glDeleteVertexArrays
001d7650 T plugin_glDeleteVertexArraysAPPLE
00215f5c T plugin_glDeleteVertexArraysOES
002036cc T plugin_glDeleteVertexShaderEXT
00207e20 T plugin_glDepthBoundsdNV
001f4238 T plugin_glDepthBoundsEXT
001c2c40 T plugin_glDepthFunc
001c2cb4 T plugin_glDepthMask
001c2d28 T plugin_glDepthRange
001ee924 T plugin_glDepthRangeArrayv
00207eb0 T plugin_glDepthRangedNV
001d7d70 T plugin_glDepthRangef
002154a0 T plugin_glDepthRangefOES
001ee9ac T plugin_glDepthRangeIndexed
00216d58 T plugin_glDepthRangex
001e5ab4 T plugin_glDetachObjectARB
001cf7ac T plugin_glDetachShader
00218284 T plugin_glDetailTexFuncSGIS
001c2db4 T plugin_glDisable
001cae24 T plugin_glDisableClientState
001f5120 T plugin_glDisableClientStateiEXT
001f50a0 T plugin_glDisableClientStateIndexedEXT
002161d4 T plugin_glDisableDriverControlQCOM
001d2bf8 T plugin_glDisablei
001fc37c T plugin_glDisableIndexedEXT
00203744 T plugin_glDisableVariantClientStateEXT
001da330 T plugin_glDisableVertexArrayAttrib
001f51a0 T plugin_glDisableVertexArrayAttribEXT
001f5220 T plugin_glDisableVertexArrayEXT
001d7940 T plugin_glDisableVertexAttribAPPLE
001cf82c T plugin_glDisableVertexAttribArray
001eb48c T plugin_glDisableVertexAttribArrayARB
001fc150 T plugin_glDiscardFramebufferEXT
001d90e8 T plugin_glDispatchCompute
001d91e8 T plugin_glDispatchComputeGroupSizeARB
001d9170 T plugin_glDispatchComputeIndirect
001cae9c T plugin_glDrawArrays
002029d8 T plugin_glDrawArraysEXT
001d49fc T plugin_glDrawArraysIndirect
001d43a8 T plugin_glDrawArraysInstanced
001d5d78 T plugin_glDrawArraysInstancedANGLE
001dccf8 T plugin_glDrawArraysInstancedARB
001d7ff0 T plugin_glDrawArraysInstancedBaseInstance
001fc60c T plugin_glDrawArraysInstancedEXT
001c2e28 T plugin_glDrawBuffer
00206404 T plugin_glDrawBufferRegion
001cf8a0 T plugin_glDrawBuffers
001dc824 T plugin_glDrawBuffersARB
001ef664 T plugin_glDrawBuffersATI
001ffd60 T plugin_glDrawBuffersIndexedEXT
00207f40 T plugin_glDrawBuffersNV
001d65c0 T plugin_glDrawElementArrayAPPLE
001ef6e4 T plugin_glDrawElementArrayATI
001caf24 T plugin_glDrawElements
001dcabc T plugin_glDrawElementsBaseVertex
001d4a7c T plugin_glDrawElementsIndirect
001d4438 T plugin_glDrawElementsInstanced
001d5e08 T plugin_glDrawElementsInstancedANGLE
001dcd88 T plugin_glDrawElementsInstancedARB
001d8080 T plugin_glDrawElementsInstancedBaseInstance
001dcb4c T plugin_glDrawElementsInstancedBaseVertex
001d8110 T plugin_glDrawElementsInstancedBaseVertexBaseInstance
001fc69c T plugin_glDrawElementsInstancedEXT
0021aea0 T plugin_glDrawMeshArraysSUN
001c2e9c T plugin_glDrawPixels
001d6648 T plugin_glDrawRangeElementArrayAPPLE
001ef764 T plugin_glDrawRangeElementArrayATI
001cb954 T plugin_glDrawRangeElements
001dcbdc T plugin_glDrawRangeElementsBaseVertex
001fc72c T plugin_glDrawRangeElementsEXT
00207fc0 T plugin_glDrawTextureNV
001e8e38 T plugin_glDrawTransformFeedback
001e92a4 T plugin_glDrawTransformFeedbackInstanced
00210578 T plugin_glDrawTransformFeedbackNV
001e910c T plugin_glDrawTransformFeedbackStream
001e932c T plugin_glDrawTransformFeedbackStreamInstanced
001c2f28 T plugin_glEdgeFlag
002118b0 T plugin_glEdgeFlagFormatNV
001cafb0 T plugin_glEdgeFlagPointer
00202a60 T plugin_glEdgeFlagPointerEXT
002050b8 T plugin_glEdgeFlagPointerListIBM
001c2f9c T plugin_glEdgeFlagv
001d66d8 T plugin_glElementPointerAPPLE
001ef7f4 T plugin_glElementPointerATI
001c3010 T plugin_glEnable
001cb030 T plugin_glEnableClientState
001f5320 T plugin_glEnableClientStateiEXT
001f52a0 T plugin_glEnableClientStateIndexedEXT
0021624c T plugin_glEnableDriverControlQCOM
001d2c78 T plugin_glEnablei
001fc3fc T plugin_glEnableIndexedEXT
002037bc T plugin_glEnableVariantClientStateEXT
001da3ac T plugin_glEnableVertexArrayAttrib
001f53a0 T plugin_glEnableVertexArrayAttribEXT
001f5420 T plugin_glEnableVertexArrayEXT
001d79c0 T plugin_glEnableVertexAttribAPPLE
001cf920 T plugin_glEnableVertexAttribArray
001eb504 T plugin_glEnableVertexAttribArrayARB
001c3084 T plugin_glEnd
001d2cf4 T plugin_glEndConditionalRender
00207b24 T plugin_glEndConditionalRenderNV
00207290 T plugin_glEndConditionalRenderNVX
001eff2c T plugin_glEndFragmentShaderATI
001c30ec T plugin_glEndList
0020c5d4 T plugin_glEndOcclusionQueryNV
001d5470 T plugin_glEndPerfMonitorAMD
001ced54 T plugin_glEndQuery
001d6014 T plugin_glEndQueryANGLE
001e1b54 T plugin_glEndQueryARB
001ffff0 T plugin_glEndQueryEXT
001e9194 T plugin_glEndQueryIndexed
00200be0 T plugin_glEndSceneEXT
00216a38 T plugin_glEndTilingQCOM
001d2d60 T plugin_glEndTransformFeedback
00202744 T plugin_glEndTransformFeedbackEXT
0021015c T plugin_glEndTransformFeedbackNV
00203834 T plugin_glEndVertexShaderEXT
0021415c T plugin_glEndVideoCaptureNV
001c3154 T plugin_glEvalCoord1d
001c31d0 T plugin_glEvalCoord1dv
001c3244 T plugin_glEvalCoord1f
001c32b8 T plugin_glEvalCoord1fv
001c332c T plugin_glEvalCoord2d
001c33b8 T plugin_glEvalCoord2dv
001c342c T plugin_glEvalCoord2f
001c34a8 T plugin_glEvalCoord2fv
00208050 T plugin_glEvalMapsNV
001c351c T plugin_glEvalMesh1
001c35a0 T plugin_glEvalMesh2
001c362c T plugin_glEvalPoint1
001c36a0 T plugin_glEvalPoint2
00211f6c T plugin_glExecuteProgramNV
002163dc T plugin_glExtGetBufferPointervQCOM
0021645c T plugin_glExtGetBuffersQCOM
002164e4 T plugin_glExtGetFramebuffersQCOM
00216820 T plugin_glExtGetProgramBinarySourceQCOM
002168b0 T plugin_glExtGetProgramsQCOM
00216568 T plugin_glExtGetRenderbuffersQCOM
00216938 T plugin_glExtGetShadersQCOM
002165f0 T plugin_glExtGetTexLevelParameterivQCOM
00216680 T plugin_glExtGetTexSubImageQCOM
00216710 T plugin_glExtGetTexturesQCOM
002169c0 T plugin_glExtIsProgramBinaryQCOM
002038a0 T plugin_glExtractComponentEXT
00216798 T plugin_glExtTexObjectStateOverrideiQCOM
001c371c T plugin_glFeedbackBuffer
001e790c T plugin_glFenceSync
001d7238 T plugin_glFenceSyncAPPLE
0020edfc T plugin_glFinalCombinerInputNV
001c37a0 T plugin_glFinish
00218e40 T plugin_glFinishAsyncSGIX
001d68f4 T plugin_glFinishFenceAPPLE
00208784 T plugin_glFinishFenceNV
001d6968 T plugin_glFinishObjectAPPLE
001d6d58 T plugin_glFinishRenderAPPLE
0021aa70 T plugin_glFinishTextureSUNX
001c3808 T plugin_glFlush
001e0068 T plugin_glFlushMappedBufferRange
001d6cd4 T plugin_glFlushMappedBufferRangeAPPLE
001ff9a4 T plugin_glFlushMappedBufferRangeEXT
001da42c T plugin_glFlushMappedNamedBufferRange
001f54a0 T plugin_glFlushMappedNamedBufferRangeEXT
0020e41c T plugin_glFlushPixelDataRangeNV
0021901c T plugin_glFlushRasterSGIX
001d6dc4 T plugin_glFlushRenderAPPLE
001d77c4 T plugin_glFlushVertexArrayRangeAPPLE
00210cd0 T plugin_glFlushVertexArrayRangeNV
001cd4cc T plugin_glFogCoordd
001fc844 T plugin_glFogCoorddEXT
001cd54c T plugin_glFogCoorddv
001fc8c4 T plugin_glFogCoorddvEXT
001cd5c4 T plugin_glFogCoordf
001fc93c T plugin_glFogCoordfEXT
00211928 T plugin_glFogCoordFormatNV
001cd63c T plugin_glFogCoordfv
001fc9b4 T plugin_glFogCoordfvEXT
0020ac2c T plugin_glFogCoordhNV
0020aca0 T plugin_glFogCoordhvNV
001cd448 T plugin_glFogCoordPointer
001fc7bc T plugin_glFogCoordPointerEXT
00205140 T plugin_glFogCoordPointerListIBM
001c3870 T plugin_glFogf
0021838c T plugin_glFogFuncSGIS
001c38ec T plugin_glFogfv
001c3968 T plugin_glFogi
001c39e4 T plugin_glFogiv
00216dd4 T plugin_glFogx
00216e54 T plugin_glFogxv
001fca2c T plugin_glFragmentColorMaterialEXT
00219100 T plugin_glFragmentColorMaterialSGIX
001fcca8 T plugin_glFragmentLightfEXT
00219380 T plugin_glFragmentLightfSGIX
001fcd30 T plugin_glFragmentLightfvEXT
00219408 T plugin_glFragmentLightfvSGIX
001fcdb8 T plugin_glFragmentLightiEXT
00219490 T plugin_glFragmentLightiSGIX
001fce40 T plugin_glFragmentLightivEXT
00219518 T plugin_glFragmentLightivSGIX
001fcaa8 T plugin_glFragmentLightModelfEXT
00219180 T plugin_glFragmentLightModelfSGIX
001fcb28 T plugin_glFragmentLightModelfvEXT
00219200 T plugin_glFragmentLightModelfvSGIX
001fcba8 T plugin_glFragmentLightModeliEXT
00219280 T plugin_glFragmentLightModeliSGIX
001fcc28 T plugin_glFragmentLightModelivEXT
00219300 T plugin_glFragmentLightModelivSGIX
001fcec8 T plugin_glFragmentMaterialfEXT
002195a0 T plugin_glFragmentMaterialfSGIX
001fcf50 T plugin_glFragmentMaterialfvEXT
00219628 T plugin_glFragmentMaterialfvSGIX
001fcfd8 T plugin_glFragmentMaterialiEXT
002196ac T plugin_glFragmentMaterialiSGIX
001fd060 T plugin_glFragmentMaterialivEXT
00219734 T plugin_glFragmentMaterialivSGIX
001f5528 T plugin_glFramebufferDrawBufferEXT
001f55a8 T plugin_glFramebufferDrawBuffersEXT
001dce18 T plugin_glFramebufferParameteri
001f5630 T plugin_glFramebufferReadBufferEXT
001dd334 T plugin_glFramebufferRenderbuffer
001fd71c T plugin_glFramebufferRenderbufferEXT
00214a40 T plugin_glFramebufferRenderbufferOES
001d45c4 T plugin_glFramebufferTexture
001dd3c4 T plugin_glFramebufferTexture1D
001fd7ac T plugin_glFramebufferTexture1DEXT
001dd454 T plugin_glFramebufferTexture2D
001fd83c T plugin_glFramebufferTexture2DEXT
001ffcd0 T plugin_glFramebufferTexture2DMultisampleEXT
002054a0 T plugin_glFramebufferTexture2DMultisampleIMG
00214ad0 T plugin_glFramebufferTexture2DOES
001dd4e4 T plugin_glFramebufferTexture3D
001fd8cc T plugin_glFramebufferTexture3DEXT
00215870 T plugin_glFramebufferTexture3DOES
001dda98 T plugin_glFramebufferTextureARB
001fdd68 T plugin_glFramebufferTextureEXT
001ddb28 T plugin_glFramebufferTextureFaceARB
001fddf8 T plugin_glFramebufferTextureFaceEXT
001dd570 T plugin_glFramebufferTextureLayer
001ddbb4 T plugin_glFramebufferTextureLayerARB
00201a94 T plugin_glFramebufferTextureLayerEXT
00204af0 T plugin_glFrameTerminatorGREMEDY
00219a5c T plugin_glFrameZoomSGIX
001f053c T plugin_glFreeObjectBufferATI
001c3a60 T plugin_glFrontFace
001c3ad4 T plugin_glFrustum
00216ed4 T plugin_glFrustumf
00215520 T plugin_glFrustumfOES
00216f64 T plugin_glFrustumx
00218eb4 T plugin_glGenAsyncMarkersSGIX
001cedcc T plugin_glGenBuffers
001eb000 T plugin_glGenBuffersARB
001dd700 T plugin_glGenerateMipmap
001fda5c T plugin_glGenerateMipmapEXT
00214c5c T plugin_glGenerateMipmapOES
001f56b0 T plugin_glGenerateMultiTexMipmapEXT
001da4b4 T plugin_glGenerateTextureMipmap
001f5730 T plugin_glGenerateTextureMipmapEXT
001d69e8 T plugin_glGenFencesAPPLE
002087fc T plugin_glGenFencesNV
001eff98 T plugin_glGenFragmentShadersATI
001dd600 T plugin_glGenFramebuffers
001fd95c T plugin_glGenFramebuffersEXT
00214b60 T plugin_glGenFramebuffersOES
001c3b60 T plugin_glGenLists
001d5274 T plugin_glGenNamesAMD
0020c640 T plugin_glGenOcclusionQueriesNV
0020cd18 T plugin_glGenPathsNV
001d54e8 T plugin_glGenPerfMonitorsAMD
001e37c0 T plugin_glGenProgramPipelines
001eb57c T plugin_glGenProgramsARB
00211ff4 T plugin_glGenProgramsNV
001cee4c T plugin_glGenQueries
001d608c T plugin_glGenQueriesANGLE
001e1bcc T plugin_glGenQueriesARB
00200068 T plugin_glGenQueriesEXT
001dd680 T plugin_glGenRenderbuffers
001fd9dc T plugin_glGenRenderbuffersEXT
00214be0 T plugin_glGenRenderbuffersOES
001e2f7c T plugin_glGenSamplers
00203928 T plugin_glGenSymbolsEXT
001cb0a8 T plugin_glGenTextures
00202070 T plugin_glGenTexturesEXT
001e8eb8 T plugin_glGenTransformFeedbacks
002105f8 T plugin_glGenTransformFeedbacksNV
001e9c08 T plugin_glGenVertexArrays
001d76d0 T plugin_glGenVertexArraysAPPLE
00215fdc T plugin_glGenVertexArraysOES
002039b8 T plugin_glGenVertexShadersEXT
001e56c8 T plugin_glGetActiveAtomicCounterBufferiv
001cf998 T plugin_glGetActiveAttrib
001ed45c T plugin_glGetActiveAttribARB
001e6d40 T plugin_glGetActiveSubroutineName
001e6e60 T plugin_glGetActiveSubroutineUniformiv
001e6dd0 T plugin_glGetActiveSubroutineUniformName
001cfa28 T plugin_glGetActiveUniform
001e5b34 T plugin_glGetActiveUniformARB
001e9744 T plugin_glGetActiveUniformBlockiv
001e96b4 T plugin_glGetActiveUniformBlockName
001e97d4 T plugin_glGetActiveUniformName
001e9860 T plugin_glGetActiveUniformsiv
002101c8 T plugin_glGetActiveVaryingNV
001f05b4 T plugin_glGetArrayObjectfvATI
001f063c T plugin_glGetArrayObjectivATI
001e5bc0 T plugin_glGetAttachedObjectsARB
001cfab4 T plugin_glGetAttachedShaders
001cfb44 T plugin_glGetAttribLocation
001ed4ec T plugin_glGetAttribLocationARB
001d2dcc T plugin_glGetBooleani_v
001fc47c T plugin_glGetBooleanIndexedvEXT
001c3bd4 T plugin_glGetBooleanv
001d4654 T plugin_glGetBufferParameteri64v
001ceec8 T plugin_glGetBufferParameteriv
001eb080 T plugin_glGetBufferParameterivARB
0020f2e8 T plugin_glGetBufferParameterui64vNV
001cef50 T plugin_glGetBufferPointerv
001eb108 T plugin_glGetBufferPointervARB
0021508c T plugin_glGetBufferPointervOES
001cefd8 T plugin_glGetBufferSubData
001eb18c T plugin_glGetBufferSubDataARB
001c3c50 T plugin_glGetClipPlane
00217c60 T plugin_glGetClipPlanef
002155b0 T plugin_glGetClipPlanefOES
00217ce0 T plugin_glGetClipPlanex
001df0f8 T plugin_glGetColorTable
00200300 T plugin_glGetColorTableEXT
001df184 T plugin_glGetColorTableParameterfv
00200390 T plugin_glGetColorTableParameterfvEXT
0021a8d0 T plugin_glGetColorTableParameterfvSGI
001df20c T plugin_glGetColorTableParameteriv
00200418 T plugin_glGetColorTableParameterivEXT
0021a958 T plugin_glGetColorTableParameterivSGI
0021a9e0 T plugin_glGetColorTableSGI
0020ee8c T plugin_glGetCombinerInputParameterfvNV
0020ef1c T plugin_glGetCombinerInputParameterivNV
0020efa8 T plugin_glGetCombinerOutputParameterfvNV
0020f038 T plugin_glGetCombinerOutputParameterivNV
0020f260 T plugin_glGetCombinerStageParameterfvNV
001f57b0 T plugin_glGetCompressedMultiTexImageEXT
001cbf48 T plugin_glGetCompressedTexImage
001e8214 T plugin_glGetCompressedTexImageARB
001da52c T plugin_glGetCompressedTextureImage
001f583c T plugin_glGetCompressedTextureImageEXT
001dde70 T plugin_glGetCompressedTextureSubImage
001df294 T plugin_glGetConvolutionFilter
001f2e04 T plugin_glGetConvolutionFilterEXT
001df324 T plugin_glGetConvolutionParameterfv
001f2e94 T plugin_glGetConvolutionParameterfvEXT
001df3a8 T plugin_glGetConvolutionParameteriv
001f2f1c T plugin_glGetConvolutionParameterivEXT
00205d20 T plugin_glGetDebugMessageLog
001d4da0 T plugin_glGetDebugMessageLogAMD
001d9548 T plugin_glGetDebugMessageLogARB
0021830c T plugin_glGetDetailTexFuncSGIS
001eea34 T plugin_glGetDoublei_v
001f5954 T plugin_glGetDoublei_vEXT
001f58cc T plugin_glGetDoubleIndexedvEXT
001c3ccc T plugin_glGetDoublev
00216354 T plugin_glGetDriverControlsQCOM
002162c4 T plugin_glGetDriverControlStringQCOM
001c3d48 T plugin_glGetError
0020887c T plugin_glGetFenceivNV
0020f0c8 T plugin_glGetFinalCombinerInputParameterfvNV
0020f150 T plugin_glGetFinalCombinerInputParameterivNV
00217d60 T plugin_glGetFixedv
001eeabc T plugin_glGetFloati_v
001f5a64 T plugin_glGetFloati_vEXT
001f59dc T plugin_glGetFloatIndexedvEXT
001c3db0 T plugin_glGetFloatv
0021840c T plugin_glGetFogFuncSGIS
001d8a6c T plugin_glGetFragDataIndex
001d2e54 T plugin_glGetFragDataLocation
001fe0b8 T plugin_glGetFragDataLocationEXT
001fd0e8 T plugin_glGetFragmentLightfvEXT
002197bc T plugin_glGetFragmentLightfvSGIX
001fd170 T plugin_glGetFragmentLightivEXT
00219844 T plugin_glGetFragmentLightivSGIX
001fd1f8 T plugin_glGetFragmentMaterialfvEXT
002198cc T plugin_glGetFragmentMaterialfvSGIX
001fd280 T plugin_glGetFragmentMaterialivEXT
00219954 T plugin_glGetFragmentMaterialivSGIX
001dd774 T plugin_glGetFramebufferAttachmentParameteriv
001fdad4 T plugin_glGetFramebufferAttachmentParameterivEXT
00214cd4 T plugin_glGetFramebufferAttachmentParameterivOES
001dcea0 T plugin_glGetFramebufferParameteriv
001f5aec T plugin_glGetFramebufferParameterivEXT
001e2314 T plugin_glGetGraphicsResetStatusARB
001e5c50 T plugin_glGetHandleARB
001df430 T plugin_glGetHistogram
001ff1f0 T plugin_glGetHistogramEXT
001df4c0 T plugin_glGetHistogramParameterfv
001ff280 T plugin_glGetHistogramParameterfvEXT
001df548 T plugin_glGetHistogramParameteriv
001ff308 T plugin_glGetHistogramParameterivEXT
001d819c T plugin_glGetImageHandleARB
002072fc T plugin_glGetImageHandleNV
00204bdc T plugin_glGetImageTransformParameterfvHP
00204c64 T plugin_glGetImageTransformParameterivHP
001e5cc8 T plugin_glGetInfoLogARB
00219b54 T plugin_glGetInstrumentsSGIX
001d46dc T plugin_glGetInteger64i_v
001e798c T plugin_glGetInteger64v
001d72b8 T plugin_glGetInteger64vAPPLE
001e98f0 T plugin_glGetIntegeri_v
001ffde8 T plugin_glGetIntegeri_vEXT
001fc504 T plugin_glGetIntegerIndexedvEXT
002119a4 T plugin_glGetIntegerui64i_vNV
0020f370 T plugin_glGetIntegerui64vNV
001c3e2c T plugin_glGetIntegerv
001dfcb8 T plugin_glGetInternalformati64v
001dfc28 T plugin_glGetInternalformativ
00203a30 T plugin_glGetInvariantBooleanvEXT
00203ab8 T plugin_glGetInvariantFloatvEXT
00203b40 T plugin_glGetInvariantIntegervEXT
001c3ea8 T plugin_glGetLightfv
001c3f2c T plugin_glGetLightiv
00217de0 T plugin_glGetLightxv
00219e14 T plugin_glGetListParameterfvSGIX
00219e98 T plugin_glGetListParameterivSGIX
00203bc8 T plugin_glGetLocalConstantBooleanvEXT
00203c50 T plugin_glGetLocalConstantFloatvEXT
00203cd8 T plugin_glGetLocalConstantIntegervEXT
002080d0 T plugin_glGetMapAttribParameterfvNV
0020815c T plugin_glGetMapAttribParameterivNV
002081ec T plugin_glGetMapControlPointsNV
001c3fb0 T plugin_glGetMapdv
001c4034 T plugin_glGetMapfv
001c40b8 T plugin_glGetMapiv
0020829c T plugin_glGetMapParameterfvNV
00208324 T plugin_glGetMapParameterivNV
001c413c T plugin_glGetMaterialfv
001c41c0 T plugin_glGetMaterialiv
00217e64 T plugin_glGetMaterialxv
001df5cc T plugin_glGetMinmax
001ff390 T plugin_glGetMinmaxEXT
001df65c T plugin_glGetMinmaxParameterfv
001ff420 T plugin_glGetMinmaxParameterfvEXT
001df6e4 T plugin_glGetMinmaxParameteriv
001ff4a4 T plugin_glGetMinmaxParameterivEXT
001e829c T plugin_glGetMultisamplefv
0020857c T plugin_glGetMultisamplefvNV
001f5b74 T plugin_glGetMultiTexEnvfvEXT
001f5c04 T plugin_glGetMultiTexEnvivEXT
001f5c94 T plugin_glGetMultiTexGendvEXT
001f5d24 T plugin_glGetMultiTexGenfvEXT
001f5db4 T plugin_glGetMultiTexGenivEXT
001f5e44 T plugin_glGetMultiTexImageEXT
001f5ed4 T plugin_glGetMultiTexLevelParameterfvEXT
001f5f64 T plugin_glGetMultiTexLevelParameterivEXT
001f6110 T plugin_glGetMultiTexParameterfvEXT
001f5ff4 T plugin_glGetMultiTexParameterIivEXT
001f6084 T plugin_glGetMultiTexParameterIuivEXT
001f61a0 T plugin_glGetMultiTexParameterivEXT
001da5b8 T plugin_glGetNamedBufferParameteri64v
001da640 T plugin_glGetNamedBufferParameteriv
001f6230 T plugin_glGetNamedBufferParameterivEXT
0020f3f0 T plugin_glGetNamedBufferParameterui64vNV
001da6c8 T plugin_glGetNamedBufferPointerv
001f62b8 T plugin_glGetNamedBufferPointervEXT
001da750 T plugin_glGetNamedBufferSubData
001f6340 T plugin_glGetNamedBufferSubDataEXT
001da7dc T plugin_glGetNamedFramebufferAttachmentParameteriv
001f63d0 T plugin_glGetNamedFramebufferAttachmentParameterivEXT
001da86c T plugin_glGetNamedFramebufferParameteriv
001dcf24 T plugin_glGetNamedFramebufferParameterivEXT
001f6730 T plugin_glGetNamedProgramivEXT
001f6580 T plugin_glGetNamedProgramLocalParameterdvEXT
001f6610 T plugin_glGetNamedProgramLocalParameterfvEXT
001f6460 T plugin_glGetNamedProgramLocalParameterIivEXT
001f64f0 T plugin_glGetNamedProgramLocalParameterIuivEXT
001f66a0 T plugin_glGetNamedProgramStringEXT
001da8f4 T plugin_glGetNamedRenderbufferParameteriv
001f67c0 T plugin_glGetNamedRenderbufferParameterivEXT
001e73c0 T plugin_glGetNamedStringARB
001e7450 T plugin_glGetNamedStringivARB
001e2380 T plugin_glGetnColorTableARB
001e2410 T plugin_glGetnCompressedTexImageARB
001e24a0 T plugin_glGetnConvolutionFilterARB
001e2530 T plugin_glGetnHistogramARB
001e25c0 T plugin_glGetnMapdvARB
001e2650 T plugin_glGetnMapfvARB
001e26e0 T plugin_glGetnMapivARB
001e2770 T plugin_glGetnMinmaxARB
001e27fc T plugin_glGetnPixelMapfvARB
001e2884 T plugin_glGetnPixelMapuivARB
001e290c T plugin_glGetnPixelMapusvARB
001e2994 T plugin_glGetnPolygonStippleARB
001e2a14 T plugin_glGetnSeparableFilterARB
001e2aa4 T plugin_glGetnTexImageARB
001e2b34 T plugin_glGetnUniformdvARB
002060e0 T plugin_glGetnUniformfv
001e2bc4 T plugin_glGetnUniformfvARB
002009c4 T plugin_glGetnUniformfvEXT
00206170 T plugin_glGetnUniformiv
001e2c54 T plugin_glGetnUniformivARB
00200a54 T plugin_glGetnUniformivEXT
00206200 T plugin_glGetnUniformuiv
001e2ce4 T plugin_glGetnUniformuivARB
001f06c4 T plugin_glGetObjectBufferfvATI
001f074c T plugin_glGetObjectBufferivATI
00205db0 T plugin_glGetObjectLabel
001f3fac T plugin_glGetObjectLabelEXT
001e5d58 T plugin_glGetObjectParameterfvARB
001d6f94 T plugin_glGetObjectParameterivAPPLE
001e5de0 T plugin_glGetObjectParameterivARB
00205e40 T plugin_glGetObjectPtrLabel
0020c6c0 T plugin_glGetOcclusionQueryivNV
0020c748 T plugin_glGetOcclusionQueryuivNV
0020cd8c T plugin_glGetPathColorGenfvNV
0020ce14 T plugin_glGetPathColorGenivNV
0020ce9c T plugin_glGetPathCommandsNV
0020cf1c T plugin_glGetPathCoordsNV
0020cf9c T plugin_glGetPathDashArrayNV
0020d01c T plugin_glGetPathLengthNV
0020d0a4 T plugin_glGetPathMetricRangeNV
0020d134 T plugin_glGetPathMetricsNV
0020d1c4 T plugin_glGetPathParameterfvNV
0020d24c T plugin_glGetPathParameterivNV
0020d2d4 T plugin_glGetPathSpacingNV
0020d364 T plugin_glGetPathTexGenfvNV
0020d3ec T plugin_glGetPathTexGenivNV
001d5568 T plugin_glGetPerfMonitorCounterDataAMD
001d55f8 T plugin_glGetPerfMonitorCounterInfoAMD
001d5714 T plugin_glGetPerfMonitorCountersAMD
001d5684 T plugin_glGetPerfMonitorCounterStringAMD
001d5834 T plugin_glGetPerfMonitorGroupsAMD
001d57a4 T plugin_glGetPerfMonitorGroupStringAMD
001c4244 T plugin_glGetPixelMapfv
001c42c0 T plugin_glGetPixelMapuiv
001c433c T plugin_glGetPixelMapusv
0021857c T plugin_glGetPixelTexGenParameterfvSGIS
002185fc T plugin_glGetPixelTexGenParameterivSGIS
002004a0 T plugin_glGetPixelTransformParameterfvEXT
00200524 T plugin_glGetPixelTransformParameterivEXT
001f68d0 T plugin_glGetPointeri_vEXT
001f6848 T plugin_glGetPointerIndexedvEXT
001cb128 T plugin_glGetPointerv
00202ae8 T plugin_glGetPointervEXT
001c43b8 T plugin_glGetPolygonStipple
0021e8dc T plugin_glGetProcAddress
001ddccc T plugin_glGetProgramBinary
00214f6c T plugin_glGetProgramBinaryOES
001eb5fc T plugin_glGetProgramEnvParameterdvARB
001eb684 T plugin_glGetProgramEnvParameterfvARB
00208f68 T plugin_glGetProgramEnvParameterIivNV
00208ff0 T plugin_glGetProgramEnvParameterIuivNV
001cfbc4 T plugin_glGetProgramInfoLog
001e1f54 T plugin_glGetProgramInterfaceiv
001cfc54 T plugin_glGetProgramiv
001eb8a4 T plugin_glGetProgramivARB
00212218 T plugin_glGetProgramivNV
001eb70c T plugin_glGetProgramLocalParameterdvARB
001eb794 T plugin_glGetProgramLocalParameterfvARB
00209078 T plugin_glGetProgramLocalParameterIivNV
00209100 T plugin_glGetProgramLocalParameterIuivNV
00208a70 T plugin_glGetProgramNamedParameterdvNV
00208b00 T plugin_glGetProgramNamedParameterfvNV
00212074 T plugin_glGetProgramParameterdvNV
00212104 T plugin_glGetProgramParameterfvNV
001e3840 T plugin_glGetProgramPipelineInfoLog
001e38cc T plugin_glGetProgramPipelineiv
001e1fe4 T plugin_glGetProgramResourceIndex
001e220c T plugin_glGetProgramResourceiv
001e206c T plugin_glGetProgramResourceLocation
001e20f4 T plugin_glGetProgramResourceLocationIndex
001e217c T plugin_glGetProgramResourceName
001e6ef0 T plugin_glGetProgramStageiv
001eb81c T plugin_glGetProgramStringARB
00212194 T plugin_glGetProgramStringNV
001e6f80 T plugin_glGetProgramSubroutineParameteruivNV
001e9214 T plugin_glGetQueryIndexediv
001cf174 T plugin_glGetQueryiv
001d6324 T plugin_glGetQueryivANGLE
001e1d58 T plugin_glGetQueryivARB
00200170 T plugin_glGetQueryivEXT
001e8ba8 T plugin_glGetQueryObjecti64v
001d6108 T plugin_glGetQueryObjecti64vANGLE
00202418 T plugin_glGetQueryObjecti64vEXT
001cf068 T plugin_glGetQueryObjectiv
001d6190 T plugin_glGetQueryObjectivANGLE
001e1c4c T plugin_glGetQueryObjectivARB
001fc1d8 T plugin_glGetQueryObjectivEXT
001e8c30 T plugin_glGetQueryObjectui64v
001d6218 T plugin_glGetQueryObjectui64vANGLE
002024a0 T plugin_glGetQueryObjectui64vEXT
001cf0ec T plugin_glGetQueryObjectuiv
001d62a0 T plugin_glGetQueryObjectuivANGLE
001e1cd4 T plugin_glGetQueryObjectuivARB
002000e8 T plugin_glGetQueryObjectuivEXT
001dd804 T plugin_glGetRenderbufferParameteriv
001fdb60 T plugin_glGetRenderbufferParameterivEXT
00214d64 T plugin_glGetRenderbufferParameterivOES
001e3108 T plugin_glGetSamplerParameterfv
001e2ffc T plugin_glGetSamplerParameterIiv
001e3080 T plugin_glGetSamplerParameterIuiv
001e3190 T plugin_glGetSamplerParameteriv
001df76c T plugin_glGetSeparableFilter
001f2fa4 T plugin_glGetSeparableFilterEXT
001cfcd8 T plugin_glGetShaderInfoLog
001cfdf8 T plugin_glGetShaderiv
001d7df0 T plugin_glGetShaderPrecisionFormat
001cfd68 T plugin_glGetShaderSource
001e5e68 T plugin_glGetShaderSourceARB
00218978 T plugin_glGetSharpenTexFuncSGIS
001c442c T plugin_glGetString
001d2ed0 T plugin_glGetStringi
001e7008 T plugin_glGetSubroutineIndex
001e7090 T plugin_glGetSubroutineUniformLocation
001e7a0c T plugin_glGetSynciv
001d7334 T plugin_glGetSyncivAPPLE
001ef874 T plugin_glGetTexBumpParameterfvATI
001ef8f4 T plugin_glGetTexBumpParameterivATI
001c44a0 T plugin_glGetTexEnvfv
001c4524 T plugin_glGetTexEnviv
00217eec T plugin_glGetTexEnvxv
00218c30 T plugin_glGetTexFilterFuncSGIS
001c45a8 T plugin_glGetTexGendv
001c462c T plugin_glGetTexGenfv
00215a20 T plugin_glGetTexGenfvOES
001c46b0 T plugin_glGetTexGeniv
00215aa8 T plugin_glGetTexGenivOES
00215b30 T plugin_glGetTexGenxvOES
001c4734 T plugin_glGetTexImage
001c47c0 T plugin_glGetTexLevelParameterfv
001c484c T plugin_glGetTexLevelParameteriv
001c48d8 T plugin_glGetTexParameterfv
001d2f50 T plugin_glGetTexParameterIiv
00201ccc T plugin_glGetTexParameterIivEXT
001d2fd8 T plugin_glGetTexParameterIuiv
00201d54 T plugin_glGetTexParameterIuivEXT
001c495c T plugin_glGetTexParameteriv
001d74cc T plugin_glGetTexParameterPointervAPPLE
00217f74 T plugin_glGetTexParameterxv
001d822c T plugin_glGetTextureHandleARB
0020738c T plugin_glGetTextureHandleNV
001da97c T plugin_glGetTextureImage
001f6958 T plugin_glGetTextureImageEXT
001daa08 T plugin_glGetTextureLevelParameterfv
001f69e4 T plugin_glGetTextureLevelParameterfvEXT
001daa98 T plugin_glGetTextureLevelParameteriv
001f6a74 T plugin_glGetTextureLevelParameterivEXT
001dac34 T plugin_glGetTextureParameterfv
001f6c24 T plugin_glGetTextureParameterfvEXT
001dab28 T plugin_glGetTextureParameterIiv
001f6b04 T plugin_glGetTextureParameterIivEXT
001dabb0 T plugin_glGetTextureParameterIuiv
001f6b94 T plugin_glGetTextureParameterIuivEXT
001dacbc T plugin_glGetTextureParameteriv
001f6cb4 T plugin_glGetTextureParameterivEXT
001d82a4 T plugin_glGetTextureSamplerHandleARB
00207404 T plugin_glGetTextureSamplerHandleNV
001ddf00 T plugin_glGetTextureSubImage
002122a0 T plugin_glGetTrackMatrixivNV
001dadd4 T plugin_glGetTransformFeedbacki_v
001dad44 T plugin_glGetTransformFeedbacki64_v
001dae60 T plugin_glGetTransformFeedbackiv
001d3060 T plugin_glGetTransformFeedbackVarying
002027b0 T plugin_glGetTransformFeedbackVaryingEXT
00210258 T plugin_glGetTransformFeedbackVaryingNV
001d64a4 T plugin_glGetTranslatedShaderSourceANGLE
001e9978 T plugin_glGetUniformBlockIndex
001f2400 T plugin_glGetUniformBufferSizeEXT
001ddf90 T plugin_glGetUniformdv
001cfefc T plugin_glGetUniformfv
001e5f78 T plugin_glGetUniformfvARB
00209824 T plugin_glGetUniformi64vNV
001e99f8 T plugin_glGetUniformIndices
001cff84 T plugin_glGetUniformiv
001e6000 T plugin_glGetUniformivARB
001cfe80 T plugin_glGetUniformLocation
001e5ef8 T plugin_glGetUniformLocationARB
001f2480 T plugin_glGetUniformOffsetEXT
001e7118 T plugin_glGetUniformSubroutineuiv
0020f478 T plugin_glGetUniformui64vNV
001d30ec T plugin_glGetUniformuiv
001fe138 T plugin_glGetUniformuivEXT
001f07d4 T plugin_glGetVariantArrayObjectfvATI
001f085c T plugin_glGetVariantArrayObjectivATI
00203d60 T plugin_glGetVariantBooleanvEXT
00203de8 T plugin_glGetVariantFloatvEXT
00203e70 T plugin_glGetVariantIntegervEXT
00203ef4 T plugin_glGetVariantPointervEXT
002102e0 T plugin_glGetVaryingLocationNV
001daee8 T plugin_glGetVertexArrayIndexed64iv
001daf78 T plugin_glGetVertexArrayIndexediv
001f6d44 T plugin_glGetVertexArrayIntegeri_vEXT
001f6dd4 T plugin_glGetVertexArrayIntegervEXT
001db008 T plugin_glGetVertexArrayiv
001f6e5c T plugin_glGetVertexArrayPointeri_vEXT
001f6eec T plugin_glGetVertexArrayPointervEXT
001f0b04 T plugin_glGetVertexAttribArrayObjectfvATI
001f0b8c T plugin_glGetVertexAttribArrayObjectivATI
001d0094 T plugin_glGetVertexAttribdv
001eb9b0 T plugin_glGetVertexAttribdvARB
002123b8 T plugin_glGetVertexAttribdvNV
001d0118 T plugin_glGetVertexAttribfv
001eba38 T plugin_glGetVertexAttribfvARB
00212440 T plugin_glGetVertexAttribfvNV
001d3174 T plugin_glGetVertexAttribIiv
001fe1c0 T plugin_glGetVertexAttribIivEXT
001d31fc T plugin_glGetVertexAttribIuiv
001fe248 T plugin_glGetVertexAttribIuivEXT
001d01a0 T plugin_glGetVertexAttribiv
001ebac0 T plugin_glGetVertexAttribivARB
002124c8 T plugin_glGetVertexAttribivNV
001e9d00 T plugin_glGetVertexAttribLdv
00202da8 T plugin_glGetVertexAttribLdvEXT
00210dbc T plugin_glGetVertexAttribLi64vNV
001d8324 T plugin_glGetVertexAttribLui64vARB
00210e44 T plugin_glGetVertexAttribLui64vNV
001d000c T plugin_glGetVertexAttribPointerv
001eb92c T plugin_glGetVertexAttribPointervARB
00212330 T plugin_glGetVertexAttribPointervNV
00214384 T plugin_glGetVideoCaptureivNV
002141d4 T plugin_glGetVideoCaptureStreamdvNV
00214264 T plugin_glGetVideoCaptureStreamfvNV
002142f4 T plugin_glGetVideoCaptureStreamivNV
0020e61c T plugin_glGetVideoi64vNV
0020e6a4 T plugin_glGetVideoivNV
0020e728 T plugin_glGetVideoui64vNV
0020e7b0 T plugin_glGetVideouivNV
0021aadc T plugin_glGlobalAlphaFactorbSUN
0021ab54 T plugin_glGlobalAlphaFactordSUN
0021abd4 T plugin_glGlobalAlphaFactorfSUN
0021ac4c T plugin_glGlobalAlphaFactoriSUN
0021acc4 T plugin_glGlobalAlphaFactorsSUN
0021ad3c T plugin_glGlobalAlphaFactorubSUN
0021adb4 T plugin_glGlobalAlphaFactoruiSUN
0021ae2c T plugin_glGlobalAlphaFactorusSUN
001c49e0 T plugin_glHint
002160d4 T plugin_glHintPGI
001df7f8 T plugin_glHistogram
001ff52c T plugin_glHistogramEXT
00219ad4 T plugin_glIglooInterfaceSGIX
00204cec T plugin_glImageTransformParameterfHP
00204d74 T plugin_glImageTransformParameterfvHP
00204dfc T plugin_glImageTransformParameteriHP
00204e84 T plugin_glImageTransformParameterivHP
00204a68 T plugin_glImportSyncEXT
001c4ad0 T plugin_glIndexd
001c4b4c T plugin_glIndexdv
001c4bc0 T plugin_glIndexf
00211a2c T plugin_glIndexFormatNV
001ff734 T plugin_glIndexFuncEXT
001c4c34 T plugin_glIndexfv
001c4ca8 T plugin_glIndexi
001c4d1c T plugin_glIndexiv
001c4a5c T plugin_glIndexMask
001ff7b4 T plugin_glIndexMaterialEXT
001cb1a4 T plugin_glIndexPointer
00202b68 T plugin_glIndexPointerEXT
002051d0 T plugin_glIndexPointerListIBM
001c4d90 T plugin_glIndexs
001c4e04 T plugin_glIndexsv
001cb22c T plugin_glIndexub
001cb2a4 T plugin_glIndexubv
001c4e78 T plugin_glInitNames
00203f7c T plugin_glInsertComponentEXT
001f40cc T plugin_glInsertEventMarkerEXT
00219bc0 T plugin_glInstrumentsBufferSGIX
001cb31c T plugin_glInterleavedArrays
0020d474 T plugin_glInterpolatePathsNV
001dfd48 T plugin_glInvalidateBufferData
001dfdc0 T plugin_glInvalidateBufferSubData
001dfe44 T plugin_glInvalidateFramebuffer
001db08c T plugin_glInvalidateNamedFramebufferData
001db114 T plugin_glInvalidateNamedFramebufferSubData
001dfecc T plugin_glInvalidateSubFramebuffer
001dff5c T plugin_glInvalidateTexImage
001dffdc T plugin_glInvalidateTexSubImage
00218f2c T plugin_glIsAsyncMarkerSGIX
001cf1fc T plugin_glIsBuffer
001eb21c T plugin_glIsBufferARB
0020f500 T plugin_glIsBufferResidentNV
001c4ee0 T plugin_glIsEnabled
001d3284 T plugin_glIsEnabledi
001fc58c T plugin_glIsEnabledIndexedEXT
001d6a68 T plugin_glIsFenceAPPLE
00208904 T plugin_glIsFenceNV
001dd88c T plugin_glIsFramebuffer
001fdbe8 T plugin_glIsFramebufferEXT
00214dec T plugin_glIsFramebufferOES
001d83a8 T plugin_glIsImageHandleResidentARB
00207484 T plugin_glIsImageHandleResidentNV
001c4f54 T plugin_glIsList
001d52fc T plugin_glIsNameAMD
0020f578 T plugin_glIsNamedBufferResidentNV
001e74e0 T plugin_glIsNamedStringARB
001f08e4 T plugin_glIsObjectBufferATI
0020c7d0 T plugin_glIsOcclusionQueryNV
0020d504 T plugin_glIsPathNV
0020d57c T plugin_glIsPointInFillPathNV
0020d608 T plugin_glIsPointInStrokePathNV
001d0228 T plugin_glIsProgram
001ebb48 T plugin_glIsProgramARB
00212550 T plugin_glIsProgramNV
001e3954 T plugin_glIsProgramPipeline
001cf274 T plugin_glIsQuery
001d63ac T plugin_glIsQueryANGLE
001e1de0 T plugin_glIsQueryARB
002001f8 T plugin_glIsQueryEXT
001dd904 T plugin_glIsRenderbuffer
001fdc60 T plugin_glIsRenderbufferEXT
00214e64 T plugin_glIsRenderbufferOES
001e3218 T plugin_glIsSampler
001d02a0 T plugin_glIsShader
001e7a9c T plugin_glIsSync
001d73c4 T plugin_glIsSyncAPPLE
001cb3a0 T plugin_glIsTexture
002020f0 T plugin_glIsTextureEXT
001d8428 T plugin_glIsTextureHandleResidentARB
00207504 T plugin_glIsTextureHandleResidentNV
001e8f38 T plugin_glIsTransformFeedback
00210678 T plugin_glIsTransformFeedbackNV
00204004 T plugin_glIsVariantEnabledEXT
001e9c88 T plugin_glIsVertexArray
001d774c T plugin_glIsVertexArrayAPPLE
0021605c T plugin_glIsVertexArrayOES
001d7a40 T plugin_glIsVertexAttribEnabledAPPLE
001f403c T plugin_glLabelObjectEXT
001fd304 T plugin_glLightEnviEXT
002199dc T plugin_glLightEnviSGIX
001c51b8 T plugin_glLightf
001c523c T plugin_glLightfv
001c52c0 T plugin_glLighti
001c5344 T plugin_glLightiv
001c4fc8 T plugin_glLightModelf
001c5044 T plugin_glLightModelfv
001c50c0 T plugin_glLightModeli
001c513c T plugin_glLightModeliv
00216ff4 T plugin_glLightModelx
00217074 T plugin_glLightModelxv
002170f4 T plugin_glLightx
0021717c T plugin_glLightxv
001c53c8 T plugin_glLineStipple
001c5444 T plugin_glLineWidth
00217204 T plugin_glLineWidthx
001d0314 T plugin_glLinkProgram
001e6088 T plugin_glLinkProgramARB
001c54b8 T plugin_glListBase
00219f20 T plugin_glListParameterfSGIX
00219fa8 T plugin_glListParameterfvSGIX
0021a030 T plugin_glListParameteriSGIX
0021a0b8 T plugin_glListParameterivSGIX
001c552c T plugin_glLoadIdentity
0021a348 T plugin_glLoadIdentityDeformationMapSGIX
001c5594 T plugin_glLoadMatrixd
001c5608 T plugin_glLoadMatrixf
0021727c T plugin_glLoadMatrixx
001c567c T plugin_glLoadName
002125c8 T plugin_glLoadProgramNV
001cbfd0 T plugin_glLoadTransposeMatrixd
001e93bc T plugin_glLoadTransposeMatrixdARB
001cc044 T plugin_glLoadTransposeMatrixf
001e9434 T plugin_glLoadTransposeMatrixfARB
001f28bc T plugin_glLockArraysEXT
001c56f0 T plugin_glLogicOp
0021820c T plugin_glLogMessageCallbackREGAL
0020f5f0 T plugin_glMakeBufferNonResidentNV
0020f668 T plugin_glMakeBufferResidentNV
001d84a8 T plugin_glMakeImageHandleNonResidentARB
00207584 T plugin_glMakeImageHandleNonResidentNV
001d8528 T plugin_glMakeImageHandleResidentARB
00207604 T plugin_glMakeImageHandleResidentNV
0020f6e8 T plugin_glMakeNamedBufferNonResidentNV
0020f760 T plugin_glMakeNamedBufferResidentNV
001d85ac T plugin_glMakeTextureHandleNonResidentARB
0020768c T plugin_glMakeTextureHandleNonResidentNV
001d862c T plugin_glMakeTextureHandleResidentARB
0020770c T plugin_glMakeTextureHandleResidentNV
001c5764 T plugin_glMap1d
001c57e8 T plugin_glMap1f
001c5874 T plugin_glMap2d
001c58f8 T plugin_glMap2f
001cf2e8 T plugin_glMapBuffer
001eb294 T plugin_glMapBufferARB
00215114 T plugin_glMapBufferOES
001e00f0 T plugin_glMapBufferRange
001ffa2c T plugin_glMapBufferRangeEXT
002083ac T plugin_glMapControlPointsNV
001c5984 T plugin_glMapGrid1d
001c5a08 T plugin_glMapGrid1f
001c5a8c T plugin_glMapGrid2d
001c5b10 T plugin_glMapGrid2f
001db1a4 T plugin_glMapNamedBuffer
001f6f74 T plugin_glMapNamedBufferEXT
001db224 T plugin_glMapNamedBufferRange
001f6ff4 T plugin_glMapNamedBufferRangeEXT
001f01a0 T plugin_glMapObjectBufferATI
0020846c T plugin_glMapParameterfvNV
002084f4 T plugin_glMapParameterivNV
00205650 T plugin_glMapTexture2DINTEL
001d7ac0 T plugin_glMapVertexAttrib1dAPPLE
001d7b4c T plugin_glMapVertexAttrib1fAPPLE
001d7bdc T plugin_glMapVertexAttrib2dAPPLE
001d7c6c T plugin_glMapVertexAttrib2fAPPLE
001c5b9c T plugin_glMaterialf
001c5c20 T plugin_glMaterialfv
001c5ca4 T plugin_glMateriali
001c5d28 T plugin_glMaterialiv
002172f4 T plugin_glMaterialx
0021737c T plugin_glMaterialxv
001f7084 T plugin_glMatrixFrustumEXT
001e01f8 T plugin_glMatrixIndexPointerARB
00215284 T plugin_glMatrixIndexPointerOES
001e0284 T plugin_glMatrixIndexubvARB
001e0304 T plugin_glMatrixIndexuivARB
001e0384 T plugin_glMatrixIndexusvARB
001f7280 T plugin_glMatrixLoaddEXT
001f7300 T plugin_glMatrixLoadfEXT
001f710c T plugin_glMatrixLoadIdentityEXT
001f7184 T plugin_glMatrixLoadTransposedEXT
001f7204 T plugin_glMatrixLoadTransposefEXT
001c5dac T plugin_glMatrixMode
001f7480 T plugin_glMatrixMultdEXT
001f7500 T plugin_glMatrixMultfEXT
001f7380 T plugin_glMatrixMultTransposedEXT
001f7400 T plugin_glMatrixMultTransposefEXT
001f7580 T plugin_glMatrixOrthoEXT
001f7608 T plugin_glMatrixPopEXT
001f7680 T plugin_glMatrixPushEXT
001f76f8 T plugin_glMatrixRotatedEXT
001f7780 T plugin_glMatrixRotatefEXT
001f7810 T plugin_glMatrixScaledEXT
001f7898 T plugin_glMatrixScalefEXT
001f7928 T plugin_glMatrixTranslatedEXT
001f79b0 T plugin_glMatrixTranslatefEXT
001e57e8 T plugin_glMemoryBarrier
001d7f78 T plugin_glMemoryBarrierByRegion
002016e4 T plugin_glMemoryBarrierEXT
001df888 T plugin_glMinmax
001ff5bc T plugin_glMinmaxEXT
001d4b04 T plugin_glMinSampleShading
001e2e04 T plugin_glMinSampleShadingARB
001cd6b0 T plugin_glMultiDrawArrays
001ffabc T plugin_glMultiDrawArraysEXT
001e0744 T plugin_glMultiDrawArraysIndirect
001d50d0 T plugin_glMultiDrawArraysIndirectAMD
001dfa8c T plugin_glMultiDrawArraysIndirectCountARB
001d6754 T plugin_glMultiDrawElementArrayAPPLE
001cd740 T plugin_glMultiDrawElements
001dcc6c T plugin_glMultiDrawElementsBaseVertex
001ffb4c T plugin_glMultiDrawElementsEXT
001e07d4 T plugin_glMultiDrawElementsIndirect
001d5160 T plugin_glMultiDrawElementsIndirectAMD
001dfb1c T plugin_glMultiDrawElementsIndirectCountARB
001d67e4 T plugin_glMultiDrawRangeElementArrayAPPLE
00204f0c T plugin_glMultiModeDrawArraysIBM
00204f98 T plugin_glMultiModeDrawElementsIBM
001f7a40 T plugin_glMultiTexBufferEXT
001cc1ac T plugin_glMultiTexCoord1d
001e09d0 T plugin_glMultiTexCoord1dARB
001cc230 T plugin_glMultiTexCoord1dv
001e0a58 T plugin_glMultiTexCoord1dvARB
001cc2b0 T plugin_glMultiTexCoord1f
001e0ad4 T plugin_glMultiTexCoord1fARB
001cc330 T plugin_glMultiTexCoord1fv
001e0b54 T plugin_glMultiTexCoord1fvARB
0020ad18 T plugin_glMultiTexCoord1hNV
0020ad98 T plugin_glMultiTexCoord1hvNV
001cc3b0 T plugin_glMultiTexCoord1i
001e0bd4 T plugin_glMultiTexCoord1iARB
001cc42c T plugin_glMultiTexCoord1iv
001e0c54 T plugin_glMultiTexCoord1ivARB
001cc4ac T plugin_glMultiTexCoord1s
001e0cd0 T plugin_glMultiTexCoord1sARB
001cc52c T plugin_glMultiTexCoord1sv
001e0d50 T plugin_glMultiTexCoord1svARB
001cc5ac T plugin_glMultiTexCoord2d
001e0dd0 T plugin_glMultiTexCoord2dARB
001cc630 T plugin_glMultiTexCoord2dv
001e0e58 T plugin_glMultiTexCoord2dvARB
001cc6b0 T plugin_glMultiTexCoord2f
001e0ed4 T plugin_glMultiTexCoord2fARB
001cc738 T plugin_glMultiTexCoord2fv
001e0f5c T plugin_glMultiTexCoord2fvARB
0020ae18 T plugin_glMultiTexCoord2hNV
0020aea0 T plugin_glMultiTexCoord2hvNV
001cc7b8 T plugin_glMultiTexCoord2i
001e0fdc T plugin_glMultiTexCoord2iARB
001cc83c T plugin_glMultiTexCoord2iv
001e1064 T plugin_glMultiTexCoord2ivARB
001cc8bc T plugin_glMultiTexCoord2s
001e10e0 T plugin_glMultiTexCoord2sARB
001cc944 T plugin_glMultiTexCoord2sv
001e1168 T plugin_glMultiTexCoord2svARB
001cc9c4 T plugin_glMultiTexCoord3d
001e11e8 T plugin_glMultiTexCoord3dARB
001cca48 T plugin_glMultiTexCoord3dv
001e1270 T plugin_glMultiTexCoord3dvARB
001ccac8 T plugin_glMultiTexCoord3f
001e12ec T plugin_glMultiTexCoord3fARB
001ccb58 T plugin_glMultiTexCoord3fv
001e137c T plugin_glMultiTexCoord3fvARB
0020af20 T plugin_glMultiTexCoord3hNV
0020afb0 T plugin_glMultiTexCoord3hvNV
001ccbd8 T plugin_glMultiTexCoord3i
001e13fc T plugin_glMultiTexCoord3iARB
001ccc64 T plugin_glMultiTexCoord3iv
001e148c T plugin_glMultiTexCoord3ivARB
001ccce4 T plugin_glMultiTexCoord3s
001e1508 T plugin_glMultiTexCoord3sARB
001ccd74 T plugin_glMultiTexCoord3sv
001e1598 T plugin_glMultiTexCoord3svARB
001ccdf4 T plugin_glMultiTexCoord4d
001e1618 T plugin_glMultiTexCoord4dARB
001cce78 T plugin_glMultiTexCoord4dv
001e16a0 T plugin_glMultiTexCoord4dvARB
001ccef8 T plugin_glMultiTexCoord4f
001e171c T plugin_glMultiTexCoord4fARB
001ccf88 T plugin_glMultiTexCoord4fv
001e17ac T plugin_glMultiTexCoord4fvARB
0020b030 T plugin_glMultiTexCoord4hNV
0020b0d0 T plugin_glMultiTexCoord4hvNV
001cd008 T plugin_glMultiTexCoord4i
001e182c T plugin_glMultiTexCoord4iARB
001cd094 T plugin_glMultiTexCoord4iv
001e18bc T plugin_glMultiTexCoord4ivARB
001cd114 T plugin_glMultiTexCoord4s
001e1938 T plugin_glMultiTexCoord4sARB
001cd1b4 T plugin_glMultiTexCoord4sv
001e19d8 T plugin_glMultiTexCoord4svARB
0021747c T plugin_glMultiTexCoord4x
001ed76c T plugin_glMultiTexCoordP1ui
001ed7f4 T plugin_glMultiTexCoordP1uiv
001ed87c T plugin_glMultiTexCoordP2ui
001ed904 T plugin_glMultiTexCoordP2uiv
001ed98c T plugin_glMultiTexCoordP3ui
001eda14 T plugin_glMultiTexCoordP3uiv
001eda9c T plugin_glMultiTexCoordP4ui
001edb20 T plugin_glMultiTexCoordP4uiv
001f7acc T plugin_glMultiTexCoordPointerEXT
001f7b5c T plugin_glMultiTexEnvfEXT
001f7bec T plugin_glMultiTexEnvfvEXT
001f7c7c T plugin_glMultiTexEnviEXT
001f7d0c T plugin_glMultiTexEnvivEXT
001f7d9c T plugin_glMultiTexGendEXT
001f7e24 T plugin_glMultiTexGendvEXT
001f7eb4 T plugin_glMultiTexGenfEXT
001f7f44 T plugin_glMultiTexGenfvEXT
001f7fd4 T plugin_glMultiTexGeniEXT
001f8064 T plugin_glMultiTexGenivEXT
001f80f4 T plugin_glMultiTexImage1DEXT
001f8184 T plugin_glMultiTexImage2DEXT
001f8214 T plugin_glMultiTexImage3DEXT
001f83c0 T plugin_glMultiTexParameterfEXT
001f8450 T plugin_glMultiTexParameterfvEXT
001f84e0 T plugin_glMultiTexParameteriEXT
001f82a4 T plugin_glMultiTexParameterIivEXT
001f8334 T plugin_glMultiTexParameterIuivEXT
001f8570 T plugin_glMultiTexParameterivEXT
001f8600 T plugin_glMultiTexRenderbufferEXT
001f8688 T plugin_glMultiTexSubImage1DEXT
001f8718 T plugin_glMultiTexSubImage2DEXT
001f87a8 T plugin_glMultiTexSubImage3DEXT
001c5e20 T plugin_glMultMatrixd
001c5e94 T plugin_glMultMatrixf
00217404 T plugin_glMultMatrixx
001cc0bc T plugin_glMultTransposeMatrixd
001e94ac T plugin_glMultTransposeMatrixdARB
001cc134 T plugin_glMultTransposeMatrixf
001e9524 T plugin_glMultTransposeMatrixfARB
001db2b0 T plugin_glNamedBufferData
001f8838 T plugin_glNamedBufferDataEXT
001db340 T plugin_glNamedBufferStorage
001d8b7c T plugin_glNamedBufferStorageEXT
001db3d0 T plugin_glNamedBufferSubData
001f88c8 T plugin_glNamedBufferSubDataEXT
001f8958 T plugin_glNamedCopyBufferSubDataEXT
001db460 T plugin_glNamedFramebufferDrawBuffer
001db4dc T plugin_glNamedFramebufferDrawBuffers
001db564 T plugin_glNamedFramebufferParameteri
001dcfac T plugin_glNamedFramebufferParameteriEXT
001db5ec T plugin_glNamedFramebufferReadBuffer
001db66c T plugin_glNamedFramebufferRenderbuffer
001f89e8 T plugin_glNamedFramebufferRenderbufferEXT
001db6f8 T plugin_glNamedFramebufferTexture
001f8a78 T plugin_glNamedFramebufferTexture1DEXT
001f8b08 T plugin_glNamedFramebufferTexture2DEXT
001f8b98 T plugin_glNamedFramebufferTexture3DEXT
001f8c28 T plugin_glNamedFramebufferTextureEXT
001f8cb4 T plugin_glNamedFramebufferTextureFaceEXT
001db788 T plugin_glNamedFramebufferTextureLayer
001f8d44 T plugin_glNamedFramebufferTextureLayerEXT
001f8dd4 T plugin_glNamedProgramLocalParameter4dEXT
001f8e5c T plugin_glNamedProgramLocalParameter4dvEXT
001f8eec T plugin_glNamedProgramLocalParameter4fEXT
001f8f7c T plugin_glNamedProgramLocalParameter4fvEXT
001f900c T plugin_glNamedProgramLocalParameterI4iEXT
001f909c T plugin_glNamedProgramLocalParameterI4ivEXT
001f912c T plugin_glNamedProgramLocalParameterI4uiEXT
001f91bc T plugin_glNamedProgramLocalParameterI4uivEXT
001f924c T plugin_glNamedProgramLocalParameters4fvEXT
001f92dc T plugin_glNamedProgramLocalParametersI4ivEXT
001f936c T plugin_glNamedProgramLocalParametersI4uivEXT
001f93fc T plugin_glNamedProgramStringEXT
001db818 T plugin_glNamedRenderbufferStorage
001f948c T plugin_glNamedRenderbufferStorageEXT
001db8a8 T plugin_glNamedRenderbufferStorageMultisample
001f951c T plugin_glNamedRenderbufferStorageMultisampleCoverageEXT
001f95a8 T plugin_glNamedRenderbufferStorageMultisampleEXT
001e755c T plugin_glNamedStringARB
00206494 T plugin_glNewBufferRegion
001c5f08 T plugin_glNewList
001f095c T plugin_glNewObjectBufferATI
001c5f84 T plugin_glNormal3b
001c6008 T plugin_glNormal3bv
001c607c T plugin_glNormal3d
001c6108 T plugin_glNormal3dv
001c617c T plugin_glNormal3f
001c6200 T plugin_glNormal3fv
0021b75c T plugin_glNormal3fVertex3fSUN
0021b7ec T plugin_glNormal3fVertex3fvSUN
0020b150 T plugin_glNormal3hNV
0020b1d8 T plugin_glNormal3hvNV
001c6274 T plugin_glNormal3i
001c62f8 T plugin_glNormal3iv
001c636c T plugin_glNormal3s
001c63f0 T plugin_glNormal3sv
0021750c T plugin_glNormal3x
00211aac T plugin_glNormalFormatNV
001edba8 T plugin_glNormalP3ui
001edc28 T plugin_glNormalP3uiv
001cb418 T plugin_glNormalPointer
00202bf8 T plugin_glNormalPointerEXT
00205260 T plugin_glNormalPointerListIBM
0020585c T plugin_glNormalPointervINTEL
001f0d18 T plugin_glNormalStream3bATI
001f0da8 T plugin_glNormalStream3bvATI
001f0e28 T plugin_glNormalStream3dATI
001f0eb0 T plugin_glNormalStream3dvATI
001f0f30 T plugin_glNormalStream3fATI
001f0fc0 T plugin_glNormalStream3fvATI
001f1040 T plugin_glNormalStream3iATI
001f10d0 T plugin_glNormalStream3ivATI
001f1150 T plugin_glNormalStream3sATI
001f11e0 T plugin_glNormalStream3svATI
00205ed0 T plugin_glObjectLabel
00205f60 T plugin_glObjectPtrLabel
001d7024 T plugin_glObjectPurgeableAPPLE
001d70ac T plugin_glObjectUnpurgeableAPPLE
001c6464 T plugin_glOrtho
00217594 T plugin_glOrthof
00215630 T plugin_glOrthofOES
00217620 T plugin_glOrthox
001f0010 T plugin_glPassTexCoordATI
001c64f0 T plugin_glPassThrough
001e7ba4 T plugin_glPatchParameterfv
001e7c24 T plugin_glPatchParameteri
0020d690 T plugin_glPathColorGenNV
0020d720 T plugin_glPathCommandsNV
0020d7b0 T plugin_glPathCoordsNV
0020d840 T plugin_glPathCoverDepthFuncNV
0020d8b8 T plugin_glPathDashArrayNV
0020d940 T plugin_glPathFogGenNV
0020d9b8 T plugin_glPathGlyphRangeNV
0020da48 T plugin_glPathGlyphsNV
0020dad8 T plugin_glPathParameterfNV
0020db60 T plugin_glPathParameterfvNV
0020dbe8 T plugin_glPathParameteriNV
0020dc70 T plugin_glPathParameterivNV
0020dcf8 T plugin_glPathStencilDepthOffsetNV
0020dd78 T plugin_glPathStencilFuncNV
0020de00 T plugin_glPathStringNV
0020de8c T plugin_glPathSubCommandsNV
0020df1c T plugin_glPathSubCoordsNV
0020dfac T plugin_glPathTexGenNV
001e8fb0 T plugin_glPauseTransformFeedback
002106f0 T plugin_glPauseTransformFeedbackNV
0020e494 T plugin_glPixelDataRangeNV
001c6564 T plugin_glPixelMapfv
001c65e8 T plugin_glPixelMapuiv
001c666c T plugin_glPixelMapusv
001c66f0 T plugin_glPixelStoref
001c676c T plugin_glPixelStorei
00218678 T plugin_glPixelTexGenParameterfSGIS
002186f8 T plugin_glPixelTexGenParameterfvSGIS
00218778 T plugin_glPixelTexGenParameteriSGIS
002187f8 T plugin_glPixelTexGenParameterivSGIS
0021a140 T plugin_glPixelTexGenSGIX
001c67e8 T plugin_glPixelTransferf
001c6864 T plugin_glPixelTransferi
002005ac T plugin_glPixelTransformParameterfEXT
00200634 T plugin_glPixelTransformParameterfvEXT
002006bc T plugin_glPixelTransformParameteriEXT
00200744 T plugin_glPixelTransformParameterivEXT
001c68e0 T plugin_glPixelZoom
001f0290 T plugin_glPNTrianglesfATI
001f0310 T plugin_glPNTrianglesiATI
0020e03c T plugin_glPointAlongPathNV
001cd7d0 T plugin_glPointParameterf
001e1e58 T plugin_glPointParameterfARB
002007cc T plugin_glPointParameterfEXT
00218878 T plugin_glPointParameterfSGIS
001cd850 T plugin_glPointParameterfv
001e1ed8 T plugin_glPointParameterfvARB
0020084c T plugin_glPointParameterfvEXT
002188f8 T plugin_glPointParameterfvSGIS
001cd8cc T plugin_glPointParameteri
0020e51c T plugin_glPointParameteriNV
001cd94c T plugin_glPointParameteriv
0020e59c T plugin_glPointParameterivNV
00217ffc T plugin_glPointParameterx
0021807c T plugin_glPointParameterxv
001c695c T plugin_glPointSize
002180fc T plugin_glPointSizePointerOES
002176b0 T plugin_glPointSizex
00218fa4 T plugin_glPollAsyncSGIX
00219c40 T plugin_glPollInstrumentsSGIX
001c69d0 T plugin_glPolygonMode
001cb4a0 T plugin_glPolygonOffset
002008cc T plugin_glPolygonOffsetEXT
00217728 T plugin_glPolygonOffsetx
001c6a4c T plugin_glPolygonStipple
001c6ac0 T plugin_glPopAttrib
001cb520 T plugin_glPopClientAttrib
00205fe8 T plugin_glPopDebugGroup
001f414c T plugin_glPopGroupMarkerEXT
001c6b28 T plugin_glPopMatrix
001c6b90 T plugin_glPopName
0020e838 T plugin_glPresentFrameDualFillNV
0020e8c0 T plugin_glPresentFrameKeyedNV
001d44c8 T plugin_glPrimitiveRestartIndex
0020e948 T plugin_glPrimitiveRestartIndexNV
0020e9c0 T plugin_glPrimitiveRestartNV
001cb588 T plugin_glPrioritizeTextures
00202168 T plugin_glPrioritizeTexturesEXT
001ddd5c T plugin_glProgramBinary
00214ffc T plugin_glProgramBinaryOES
0020c968 T plugin_glProgramBufferParametersfvNV
0020c848 T plugin_glProgramBufferParametersIivNV
0020c8d8 T plugin_glProgramBufferParametersIuivNV
001ebbc0 T plugin_glProgramEnvParameter4dARB
001ebc50 T plugin_glProgramEnvParameter4dvARB
001ebcd8 T plugin_glProgramEnvParameter4fARB
001ebd68 T plugin_glProgramEnvParameter4fvARB
00209188 T plugin_glProgramEnvParameterI4iNV
00209218 T plugin_glProgramEnvParameterI4ivNV
0020929c T plugin_glProgramEnvParameterI4uiNV
0020932c T plugin_glProgramEnvParameterI4uivNV
001fdf10 T plugin_glProgramEnvParameters4fvEXT
002093b4 T plugin_glProgramEnvParametersI4ivNV
00209444 T plugin_glProgramEnvParametersI4uivNV
001ebdf0 T plugin_glProgramLocalParameter4dARB
001ebe80 T plugin_glProgramLocalParameter4dvARB
001ebf08 T plugin_glProgramLocalParameter4fARB
001ebf98 T plugin_glProgramLocalParameter4fvARB
002094d4 T plugin_glProgramLocalParameterI4iNV
00209564 T plugin_glProgramLocalParameterI4ivNV
002095ec T plugin_glProgramLocalParameterI4uiNV
0020967c T plugin_glProgramLocalParameterI4uivNV
001fdfa0 T plugin_glProgramLocalParameters4fvEXT
00209704 T plugin_glProgramLocalParametersI4ivNV
00209794 T plugin_glProgramLocalParametersI4uivNV
00208b90 T plugin_glProgramNamedParameter4dNV
00208c18 T plugin_glProgramNamedParameter4dvNV
00208ca8 T plugin_glProgramNamedParameter4fNV
00208d38 T plugin_glProgramNamedParameter4fvNV
00212658 T plugin_glProgramParameter4dNV
002126e8 T plugin_glProgramParameter4dvNV
00212770 T plugin_glProgramParameter4fNV
00212800 T plugin_glProgramParameter4fvNV
001ddde8 T plugin_glProgramParameteri
001ddc44 T plugin_glProgramParameteriARB
001fde88 T plugin_glProgramParameteriEXT
00212888 T plugin_glProgramParameters4dvNV
00212918 T plugin_glProgramParameters4fvNV
001ec020 T plugin_glProgramStringARB
001e71a0 T plugin_glProgramSubroutineParametersuivNV
001e39cc T plugin_glProgramUniform1d
001f9638 T plugin_glProgramUniform1dEXT
001e3a5c T plugin_glProgramUniform1dv
001f96c8 T plugin_glProgramUniform1dvEXT
001e3aec T plugin_glProgramUniform1f
001f9758 T plugin_glProgramUniform1fEXT
001e3b74 T plugin_glProgramUniform1fv
001f97e0 T plugin_glProgramUniform1fvEXT
001e3c04 T plugin_glProgramUniform1i
002098ac T plugin_glProgramUniform1i64NV
0020993c T plugin_glProgramUniform1i64vNV
001f9870 T plugin_glProgramUniform1iEXT
001e3c8c T plugin_glProgramUniform1iv
001f98f8 T plugin_glProgramUniform1ivEXT
001e3d1c T plugin_glProgramUniform1ui
002099cc T plugin_glProgramUniform1ui64NV
00209a5c T plugin_glProgramUniform1ui64vNV
001f9988 T plugin_glProgramUniform1uiEXT
001e3da4 T plugin_glProgramUniform1uiv
001f9a10 T plugin_glProgramUniform1uivEXT
001e3e34 T plugin_glProgramUniform2d
001f9aa0 T plugin_glProgramUniform2dEXT
001e3ec4 T plugin_glProgramUniform2dv
001f9b30 T plugin_glProgramUniform2dvEXT
001e3f54 T plugin_glProgramUniform2f
001f9bc0 T plugin_glProgramUniform2fEXT
001e3fe4 T plugin_glProgramUniform2fv
001f9c50 T plugin_glProgramUniform2fvEXT
001e4074 T plugin_glProgramUniform2i
00209aec T plugin_glProgramUniform2i64NV
00209b78 T plugin_glProgramUniform2i64vNV
001f9ce0 T plugin_glProgramUniform2iEXT
001e4104 T plugin_glProgramUniform2iv
001f9d70 T plugin_glProgramUniform2ivEXT
001e4190 T plugin_glProgramUniform2ui
00209c08 T plugin_glProgramUniform2ui64NV
00209c98 T plugin_glProgramUniform2ui64vNV
001f9e00 T plugin_glProgramUniform2uiEXT
001e4220 T plugin_glProgramUniform2uiv
001f9e8c T plugin_glProgramUniform2uivEXT
001e42b0 T plugin_glProgramUniform3d
001f9f1c T plugin_glProgramUniform3dEXT
001e4340 T plugin_glProgramUniform3dv
001f9fac T plugin_glProgramUniform3dvEXT
001e43d0 T plugin_glProgramUniform3f
001fa03c T plugin_glProgramUniform3fEXT
001e4460 T plugin_glProgramUniform3fv
001fa0cc T plugin_glProgramUniform3fvEXT
001e44f0 T plugin_glProgramUniform3i
00209d28 T plugin_glProgramUniform3i64NV
00209db8 T plugin_glProgramUniform3i64vNV
001fa15c T plugin_glProgramUniform3iEXT
001e4580 T plugin_glProgramUniform3iv
001fa1ec T plugin_glProgramUniform3ivEXT
001e4610 T plugin_glProgramUniform3ui
00209e48 T plugin_glProgramUniform3ui64NV
00209ed8 T plugin_glProgramUniform3ui64vNV
001fa27c T plugin_glProgramUniform3uiEXT
001e46a0 T plugin_glProgramUniform3uiv
001fa30c T plugin_glProgramUniform3uivEXT
001e4730 T plugin_glProgramUniform4d
001fa39c T plugin_glProgramUniform4dEXT
001e47c0 T plugin_glProgramUniform4dv
001fa42c T plugin_glProgramUniform4dvEXT
001e4850 T plugin_glProgramUniform4f
001fa4bc T plugin_glProgramUniform4fEXT
001e48e0 T plugin_glProgramUniform4fv
001fa54c T plugin_glProgramUniform4fvEXT
001e4970 T plugin_glProgramUniform4i
00209f68 T plugin_glProgramUniform4i64NV
00209ff8 T plugin_glProgramUniform4i64vNV
001fa5dc T plugin_glProgramUniform4iEXT
001e4a00 T plugin_glProgramUniform4iv
001fa66c T plugin_glProgramUniform4ivEXT
001e4a8c T plugin_glProgramUniform4ui
0020a088 T plugin_glProgramUniform4ui64NV
0020a118 T plugin_glProgramUniform4ui64vNV
001fa6fc T plugin_glProgramUniform4uiEXT
001e4b1c T plugin_glProgramUniform4uiv
001fa788 T plugin_glProgramUniform4uivEXT
001d86ac T plugin_glProgramUniformHandleui64ARB
0020778c T plugin_glProgramUniformHandleui64NV
001d873c T plugin_glProgramUniformHandleui64vARB
0020781c T plugin_glProgramUniformHandleui64vNV
001e4bac T plugin_glProgramUniformMatrix2dv
001fa818 T plugin_glProgramUniformMatrix2dvEXT
001e4c3c T plugin_glProgramUniformMatrix2fv
001fa8a8 T plugin_glProgramUniformMatrix2fvEXT
001e4ccc T plugin_glProgramUniformMatrix2x3dv
001fa938 T plugin_glProgramUniformMatrix2x3dvEXT
001e4d5c T plugin_glProgramUniformMatrix2x3fv
001fa9c8 T plugin_glProgramUniformMatrix2x3fvEXT
001e4dec T plugin_glProgramUniformMatrix2x4dv
001faa58 T plugin_glProgramUniformMatrix2x4dvEXT
001e4e7c T plugin_glProgramUniformMatrix2x4fv
001faae8 T plugin_glProgramUniformMatrix2x4fvEXT
001e4f0c T plugin_glProgramUniformMatrix3dv
001fab78 T plugin_glProgramUniformMatrix3dvEXT
001e4f9c T plugin_glProgramUniformMatrix3fv
001fac08 T plugin_glProgramUniformMatrix3fvEXT
001e502c T plugin_glProgramUniformMatrix3x2dv
001fac98 T plugin_glProgramUniformMatrix3x2dvEXT
001e50bc T plugin_glProgramUniformMatrix3x2fv
001fad28 T plugin_glProgramUniformMatrix3x2fvEXT
001e514c T plugin_glProgramUniformMatrix3x4dv
001fadb8 T plugin_glProgramUniformMatrix3x4dvEXT
001e51dc T plugin_glProgramUniformMatrix3x4fv
001fae48 T plugin_glProgramUniformMatrix3x4fvEXT
001e526c T plugin_glProgramUniformMatrix4dv
001faed8 T plugin_glProgramUniformMatrix4dvEXT
001e52fc T plugin_glProgramUniformMatrix4fv
001faf68 T plugin_glProgramUniformMatrix4fvEXT
001e5388 T plugin_glProgramUniformMatrix4x2dv
001faff8 T plugin_glProgramUniformMatrix4x2dvEXT
001e5418 T plugin_glProgramUniformMatrix4x2fv
001fb084 T plugin_glProgramUniformMatrix4x2fvEXT
001e54a8 T plugin_glProgramUniformMatrix4x3dv
001fb114 T plugin_glProgramUniformMatrix4x3dvEXT
001e5538 T plugin_glProgramUniformMatrix4x3fv
001fb1a4 T plugin_glProgramUniformMatrix4x3fvEXT
0020f7dc T plugin_glProgramUniformui64NV
0020f86c T plugin_glProgramUniformui64vNV
00208ee8 T plugin_glProgramVertexLimitNV
001e229c T plugin_glProvokingVertex
0020094c T plugin_glProvokingVertexEXT
001c6bf8 T plugin_glPushAttrib
001cb610 T plugin_glPushClientAttrib
001fb234 T plugin_glPushClientAttribDefaultEXT
00206054 T plugin_glPushDebugGroup
001f41b8 T plugin_glPushGroupMarkerEXT
001c6c6c T plugin_glPushMatrix
001c6cd4 T plugin_glPushName
001e8cb8 T plugin_glQueryCounter
001d6424 T plugin_glQueryCounterANGLE
001fc25c T plugin_glQueryCounterEXT
001c6d48 T plugin_glRasterPos2d
001c6dd4 T plugin_glRasterPos2dv
001c6e48 T plugin_glRasterPos2f
001c6ec4 T plugin_glRasterPos2fv
001c6f38 T plugin_glRasterPos2i
001c6fb4 T plugin_glRasterPos2iv
001c7028 T plugin_glRasterPos2s
001c70a4 T plugin_glRasterPos2sv
001c7118 T plugin_glRasterPos3d
001c71a4 T plugin_glRasterPos3dv
001c7218 T plugin_glRasterPos3f
001c729c T plugin_glRasterPos3fv
001c7310 T plugin_glRasterPos3i
001c7394 T plugin_glRasterPos3iv
001c7408 T plugin_glRasterPos3s
001c748c T plugin_glRasterPos3sv
001c7500 T plugin_glRasterPos4d
001c758c T plugin_glRasterPos4dv
001c7600 T plugin_glRasterPos4f
001c768c T plugin_glRasterPos4fv
001c7700 T plugin_glRasterPos4i
001c778c T plugin_glRasterPos4iv
001c7800 T plugin_glRasterPos4s
001c788c T plugin_glRasterPos4sv
001c7900 T plugin_glReadBuffer
001ffe70 T plugin_glReadBufferIndexedEXT
0020ea2c T plugin_glReadBufferNV
0020650c T plugin_glReadBufferRegion
00219cb8 T plugin_glReadInstrumentsSGIX
00206290 T plugin_glReadnPixels
001e2d74 T plugin_glReadnPixelsARB
00200ae4 T plugin_glReadnPixelsEXT
001c7974 T plugin_glReadPixels
0021af30 T plugin_glReadVideoPixelsSUN
001c7a00 T plugin_glRectd
001c7a8c T plugin_glRectdv
001c7b08 T plugin_glRectf
001c7b94 T plugin_glRectfv
001c7c10 T plugin_glRecti
001c7c9c T plugin_glRectiv
001c7d18 T plugin_glRects
001c7da4 T plugin_glRectsv
0021a3c0 T plugin_glReferencePlaneSGIX
001d7e80 T plugin_glReleaseShaderCompiler
001dd978 T plugin_glRenderbufferStorage
001fdcd8 T plugin_glRenderbufferStorageEXT
001dda08 T plugin_glRenderbufferStorageMultisample
001d5ce8 T plugin_glRenderbufferStorageMultisampleANGLE
001d6e9c T plugin_glRenderbufferStorageMultisampleAPPLE
00208e58 T plugin_glRenderbufferStorageMultisampleCoverageNV
001fd414 T plugin_glRenderbufferStorageMultisampleEXT
00205530 T plugin_glRenderbufferStorageMultisampleIMG
00214edc T plugin_glRenderbufferStorageOES
001c7e20 T plugin_glRenderMode
0021afc0 T plugin_glReplacementCodePointerSUN
0021b048 T plugin_glReplacementCodeubSUN
0021b0c0 T plugin_glReplacementCodeubvSUN
0021b86c T plugin_glReplacementCodeuiColor3fVertex3fSUN
0021b8fc T plugin_glReplacementCodeuiColor3fVertex3fvSUN
0021b984 T plugin_glReplacementCodeuiColor4fNormal3fVertex3fSUN
0021ba14 T plugin_glReplacementCodeuiColor4fNormal3fVertex3fvSUN
0021baa4 T plugin_glReplacementCodeuiColor4ubVertex3fSUN
0021bb6c T plugin_glReplacementCodeuiColor4ubVertex3fvSUN
0021bbf4 T plugin_glReplacementCodeuiNormal3fVertex3fSUN
0021bc84 T plugin_glReplacementCodeuiNormal3fVertex3fvSUN
0021b138 T plugin_glReplacementCodeuiSUN
0021bd0c T plugin_glReplacementCodeuiTexCoord2fColor4fNormal3fVertex3fSUN
0021bd9c T plugin_glReplacementCodeuiTexCoord2fColor4fNormal3fVertex3fvSUN
0021be2c T plugin_glReplacementCodeuiTexCoord2fNormal3fVertex3fSUN
0021bebc T plugin_glReplacementCodeuiTexCoord2fNormal3fVertex3fvSUN
0021bf4c T plugin_glReplacementCodeuiTexCoord2fVertex3fSUN
0021bfd8 T plugin_glReplacementCodeuiTexCoord2fVertex3fvSUN
0021c060 T plugin_glReplacementCodeuiVertex3fSUN
0021c0f0 T plugin_glReplacementCodeuiVertex3fvSUN
0021b1b0 T plugin_glReplacementCodeuivSUN
0021b228 T plugin_glReplacementCodeusSUN
0021b2a0 T plugin_glReplacementCodeusvSUN
002129a8 T plugin_glRequestResidentProgramsNV
001df910 T plugin_glResetHistogram
001ff644 T plugin_glResetHistogramEXT
001df988 T plugin_glResetMinmax
001ff6bc T plugin_glResetMinmaxEXT
0020659c T plugin_glResizeBuffersMESA
001d6f28 T plugin_glResolveMultisampleFramebufferAPPLE
001e9018 T plugin_glResumeTransformFeedback
0021075c T plugin_glResumeTransformFeedbackNV
001c7e94 T plugin_glRotated
001c7f20 T plugin_glRotatef
002177a8 T plugin_glRotatex
001cd234 T plugin_glSampleCoverage
001e0864 T plugin_glSampleCoverageARB
00217838 T plugin_glSampleCoveragex
001f0098 T plugin_glSampleMapATI
001ffbdc T plugin_glSampleMaskEXT
001e8324 T plugin_glSampleMaski
00208604 T plugin_glSampleMaskIndexedNV
00218484 T plugin_glSampleMaskSGIS
001ffc5c T plugin_glSamplePatternEXT
00218504 T plugin_glSamplePatternSGIS
001e33a0 T plugin_glSamplerParameterf
001e3428 T plugin_glSamplerParameterfv
001e34b0 T plugin_glSamplerParameteri
001e3290 T plugin_glSamplerParameterIiv
001e3318 T plugin_glSamplerParameterIuiv
001e3538 T plugin_glSamplerParameteriv
001c7fac T plugin_glScaled
001c8038 T plugin_glScalef
002178b8 T plugin_glScalex
001c80bc T plugin_glScissor
001eeb44 T plugin_glScissorArrayv
001eebc8 T plugin_glScissorIndexed
001eec58 T plugin_glScissorIndexedv
001cd9cc T plugin_glSecondaryColor3b
00200c4c T plugin_glSecondaryColor3bEXT
001cda54 T plugin_glSecondaryColor3bv
00200cd4 T plugin_glSecondaryColor3bvEXT
001cdac8 T plugin_glSecondaryColor3d
00200d48 T plugin_glSecondaryColor3dEXT
001cdb58 T plugin_glSecondaryColor3dv
00200dd8 T plugin_glSecondaryColor3dvEXT
001cdbd0 T plugin_glSecondaryColor3f
00200e50 T plugin_glSecondaryColor3fEXT
001cdc58 T plugin_glSecondaryColor3fv
00200ed8 T plugin_glSecondaryColor3fvEXT
0020b250 T plugin_glSecondaryColor3hNV
0020b2d8 T plugin_glSecondaryColor3hvNV
001cdccc T plugin_glSecondaryColor3i
00200f50 T plugin_glSecondaryColor3iEXT
001cdd54 T plugin_glSecondaryColor3iv
00200fd8 T plugin_glSecondaryColor3ivEXT
001cddcc T plugin_glSecondaryColor3s
00201050 T plugin_glSecondaryColor3sEXT
001cde54 T plugin_glSecondaryColor3sv
002010d8 T plugin_glSecondaryColor3svEXT
001cdec8 T plugin_glSecondaryColor3ub
00201150 T plugin_glSecondaryColor3ubEXT
001cdf50 T plugin_glSecondaryColor3ubv
002011d8 T plugin_glSecondaryColor3ubvEXT
001cdfc8 T plugin_glSecondaryColor3ui
00201250 T plugin_glSecondaryColor3uiEXT
001ce050 T plugin_glSecondaryColor3uiv
002012d8 T plugin_glSecondaryColor3uivEXT
001ce0c4 T plugin_glSecondaryColor3us
00201350 T plugin_glSecondaryColor3usEXT
001ce14c T plugin_glSecondaryColor3usv
002013d8 T plugin_glSecondaryColor3usvEXT
00211b2c T plugin_glSecondaryColorFormatNV
001edca8 T plugin_glSecondaryColorP3ui
001edd28 T plugin_glSecondaryColorP3uiv
001ce1c4 T plugin_glSecondaryColorPointer
00201450 T plugin_glSecondaryColorPointerEXT
002052f0 T plugin_glSecondaryColorPointerListIBM
001c8148 T plugin_glSelectBuffer
001d58b8 T plugin_glSelectPerfMonitorCountersAMD
001df9fc T plugin_glSeparableFilter2D
001f3034 T plugin_glSeparableFilter2DEXT
001d6ae0 T plugin_glSetFenceAPPLE
0020897c T plugin_glSetFenceNV
001f0120 T plugin_glSetFragmentShaderConstantATI
00204084 T plugin_glSetInvariantEXT
0020410c T plugin_glSetLocalConstantEXT
001d5948 T plugin_glSetMultisamplefvAMD
001c81c4 T plugin_glShadeModel
001d7eec T plugin_glShaderBinary
00204194 T plugin_glShaderOp1EXT
0020421c T plugin_glShaderOp2EXT
002042ac T plugin_glShaderOp3EXT
001d038c T plugin_glShaderSource
001e6100 T plugin_glShaderSourceARB
001e6cb8 T plugin_glShaderStorageBlockBinding
002189f8 T plugin_glSharpenTexFuncSGIS
0021a438 T plugin_glSpriteParameterfSGIX
0021a4b8 T plugin_glSpriteParameterfvSGIX
0021a538 T plugin_glSpriteParameteriSGIX
0021a5b8 T plugin_glSpriteParameterivSGIX
00219d30 T plugin_glStartInstrumentsSGIX
00216ab0 T plugin_glStartTilingQCOM
0020175c T plugin_glStencilClearTagEXT
0020e0cc T plugin_glStencilFillPathInstancedNV
0020e15c T plugin_glStencilFillPathNV
001c8238 T plugin_glStencilFunc
001d041c T plugin_glStencilFuncSeparate
001f0390 T plugin_glStencilFuncSeparateATI
001c82bc T plugin_glStencilMask
001d04ac T plugin_glStencilMaskSeparate
001c8330 T plugin_glStencilOp
001d0528 T plugin_glStencilOpSeparate
001f041c T plugin_glStencilOpSeparateATI
001d5aec T plugin_glStencilOpValueAMD
0020e1e4 T plugin_glStencilStrokePathInstancedNV
0020e274 T plugin_glStencilStrokePathNV
00219d9c T plugin_glStopInstrumentsSGIX
00204b5c T plugin_glStringMarkerGREMEDY
001d6e30 T plugin_glSwapAPPLE
0020433c T plugin_glSwizzleEXT
002056e0 T plugin_glSyncTextureINTEL
0021a638 T plugin_glTagSampleBufferSGIX
001f3650 T plugin_glTangent3bEXT
001f36d8 T plugin_glTangent3bvEXT
001f3750 T plugin_glTangent3dEXT
001f37e0 T plugin_glTangent3dvEXT
001f3858 T plugin_glTangent3fEXT
001f38e0 T plugin_glTangent3fvEXT
001f3958 T plugin_glTangent3iEXT
001f39e0 T plugin_glTangent3ivEXT
001f3a58 T plugin_glTangent3sEXT
001f3ae0 T plugin_glTangent3svEXT
001f3b58 T plugin_glTangentPointerEXT
001d4b7c T plugin_glTbufferMask3DFX
001d5b6c T plugin_glTessellationFactorAMD
001d5be4 T plugin_glTessellationModeAMD
001d6b54 T plugin_glTestFenceAPPLE
002089f8 T plugin_glTestFenceNV
001d6bcc T plugin_glTestObjectAPPLE
001d4540 T plugin_glTexBuffer
001e7d10 T plugin_glTexBufferARB
00201b24 T plugin_glTexBufferEXT
001e7d98 T plugin_glTexBufferRange
001ef974 T plugin_glTexBumpParameterfvATI
001ef9f4 T plugin_glTexBumpParameterivATI
001c83b4 T plugin_glTexCoord1d
001c8430 T plugin_glTexCoord1dv
001c84a4 T plugin_glTexCoord1f
001c8518 T plugin_glTexCoord1fv
0020b350 T plugin_glTexCoord1hNV
0020b3c8 T plugin_glTexCoord1hvNV
001c858c T plugin_glTexCoord1i
001c8600 T plugin_glTexCoord1iv
001c8674 T plugin_glTexCoord1s
001c86e8 T plugin_glTexCoord1sv
001c875c T plugin_glTexCoord2d
001c87e8 T plugin_glTexCoord2dv
001c885c T plugin_glTexCoord2f
0021c170 T plugin_glTexCoord2fColor3fVertex3fSUN
0021c200 T plugin_glTexCoord2fColor3fVertex3fvSUN
0021c288 T plugin_glTexCoord2fColor4fNormal3fVertex3fSUN
0021c318 T plugin_glTexCoord2fColor4fNormal3fVertex3fvSUN
0021c3a8 T plugin_glTexCoord2fColor4ubVertex3fSUN
0021c478 T plugin_glTexCoord2fColor4ubVertex3fvSUN
0021c500 T plugin_glTexCoord2fNormal3fVertex3fSUN
0021c590 T plugin_glTexCoord2fNormal3fVertex3fvSUN
001c88d8 T plugin_glTexCoord2fv
0021c618 T plugin_glTexCoord2fVertex3fSUN
0021c6a8 T plugin_glTexCoord2fVertex3fvSUN
0020b440 T plugin_glTexCoord2hNV
0020b4bc T plugin_glTexCoord2hvNV
001c894c T plugin_glTexCoord2i
001c89c8 T plugin_glTexCoord2iv
001c8a3c T plugin_glTexCoord2s
001c8ab8 T plugin_glTexCoord2sv
001c8b2c T plugin_glTexCoord3d
001c8bb8 T plugin_glTexCoord3dv
001c8c2c T plugin_glTexCoord3f
001c8cb0 T plugin_glTexCoord3fv
0020b534 T plugin_glTexCoord3hNV
0020b5bc T plugin_glTexCoord3hvNV
001c8d24 T plugin_glTexCoord3i
001c8da8 T plugin_glTexCoord3iv
001c8e1c T plugin_glTexCoord3s
001c8ea0 T plugin_glTexCoord3sv
001c8f18 T plugin_glTexCoord4d
001c8fa8 T plugin_glTexCoord4dv
001c9020 T plugin_glTexCoord4f
0021c728 T plugin_glTexCoord4fColor4fNormal3fVertex4fSUN
0021c7b8 T plugin_glTexCoord4fColor4fNormal3fVertex4fvSUN
001c90ac T plugin_glTexCoord4fv
0021c848 T plugin_glTexCoord4fVertex4fSUN
0021c8d4 T plugin_glTexCoord4fVertex4fvSUN
0020b634 T plugin_glTexCoord4hNV
0020b6c4 T plugin_glTexCoord4hvNV
001c9124 T plugin_glTexCoord4i
001c91b4 T plugin_glTexCoord4iv
001c922c T plugin_glTexCoord4s
001c92b8 T plugin_glTexCoord4sv
00211bb4 T plugin_glTexCoordFormatNV
001edda8 T plugin_glTexCoordP1ui
001ede28 T plugin_glTexCoordP1uiv
001edea8 T plugin_glTexCoordP2ui
001edf28 T plugin_glTexCoordP2uiv
001edfa8 T plugin_glTexCoordP3ui
001ee028 T plugin_glTexCoordP3uiv
001ee0a8 T plugin_glTexCoordP4ui
001ee128 T plugin_glTexCoordP4uiv
001cb688 T plugin_glTexCoordPointer
00202c88 T plugin_glTexCoordPointerEXT
00205380 T plugin_glTexCoordPointerListIBM
002058dc T plugin_glTexCoordPointervINTEL
001c9330 T plugin_glTexEnvf
001c93b8 T plugin_glTexEnvfv
001c9440 T plugin_glTexEnvi
001c94c4 T plugin_glTexEnviv
00217940 T plugin_glTexEnvx
002179c8 T plugin_glTexEnvxv
00218cb8 T plugin_glTexFilterFuncSGIS
001c954c T plugin_glTexGend
001c95dc T plugin_glTexGendv
001c9664 T plugin_glTexGenf
00215bb8 T plugin_glTexGenfOES
001c96e8 T plugin_glTexGenfv
00215c40 T plugin_glTexGenfvOES
001c9770 T plugin_glTexGeni
00215cc8 T plugin_glTexGeniOES
001c97f8 T plugin_glTexGeniv
00215d4c T plugin_glTexGenivOES
00215dd4 T plugin_glTexGenxOES
00215e5c T plugin_glTexGenxvOES
001c9880 T plugin_glTexImage1D
001c990c T plugin_glTexImage2D
001e83a4 T plugin_glTexImage2DMultisample
0020fa78 T plugin_glTexImage2DMultisampleCoverageNV
001cb9e0 T plugin_glTexImage3D
00201a04 T plugin_glTexImage3DEXT
001e844c T plugin_glTexImage3DMultisample
0020fb28 T plugin_glTexImage3DMultisampleCoverageNV
00215900 T plugin_glTexImage3DOES
00218a80 T plugin_glTexImage4DSGIS
001e767c T plugin_glTexPageCommitmentARB
001c999c T plugin_glTexParameterf
001c9a24 T plugin_glTexParameterfv
001c9aac T plugin_glTexParameteri
001d3300 T plugin_glTexParameterIiv
00201dd8 T plugin_glTexParameterIivEXT
001d3388 T plugin_glTexParameterIuiv
00201e60 T plugin_glTexParameterIuivEXT
001c9b30 T plugin_glTexParameteriv
00217a50 T plugin_glTexParameterx
00218184 T plugin_glTexParameterxv
00208684 T plugin_glTexRenderbufferNV
002059ec T plugin_glTexScissorFuncINTEL
00205a74 T plugin_glTexScissorINTEL
001e84fc T plugin_glTexStorage1D
00202268 T plugin_glTexStorage1DEXT
001e858c T plugin_glTexStorage2D
002022f8 T plugin_glTexStorage2DEXT
001e8858 T plugin_glTexStorage2DMultisample
001e861c T plugin_glTexStorage3D
00202388 T plugin_glTexStorage3DEXT
001e8900 T plugin_glTexStorage3DMultisample
001d59d0 T plugin_glTexStorageSparseAMD
001cb718 T plugin_glTexSubImage1D
00201854 T plugin_glTexSubImage1DEXT
001cb7a4 T plugin_glTexSubImage2D
002018e4 T plugin_glTexSubImage2DEXT
001cba70 T plugin_glTexSubImage3D
00201974 T plugin_glTexSubImage3DEXT
00215990 T plugin_glTexSubImage3DOES
00218b10 T plugin_glTexSubImage4DSGIS
001e7ca4 T plugin_glTextureBarrier
0020fa0c T plugin_glTextureBarrierNV
001db934 T plugin_glTextureBuffer
001fb2ac T plugin_glTextureBufferEXT
001db9bc T plugin_glTextureBufferRange
001e7e24 T plugin_glTextureBufferRangeEXT
00218ba0 T plugin_glTextureColorMaskSGIS
00219088 T plugin_glTextureFogSGIX
001fb33c T plugin_glTextureImage1DEXT
001fb3cc T plugin_glTextureImage2DEXT
0020fbe0 T plugin_glTextureImage2DMultisampleCoverageNV
0020fc98 T plugin_glTextureImage2DMultisampleNV
001fb45c T plugin_glTextureImage3DEXT
0020fd48 T plugin_glTextureImage3DMultisampleCoverageNV
0020fe08 T plugin_glTextureImage3DMultisampleNV
001ff8ac T plugin_glTextureLightEXT
001ff924 T plugin_glTextureMaterialEXT
002021f0 T plugin_glTextureNormalEXT
001e773c T plugin_glTexturePageCommitmentEXT
001dbb58 T plugin_glTextureParameterf
001fb60c T plugin_glTextureParameterfEXT
001dbbe0 T plugin_glTextureParameterfv
001fb69c T plugin_glTextureParameterfvEXT
001dbc68 T plugin_glTextureParameteri
001fb72c T plugin_glTextureParameteriEXT
001dba4c T plugin_glTextureParameterIiv
001fb4ec T plugin_glTextureParameterIivEXT
001dbad4 T plugin_glTextureParameterIuiv
001fb57c T plugin_glTextureParameterIuivEXT
001dbcf0 T plugin_glTextureParameteriv
001fb7bc T plugin_glTextureParameterivEXT
001d7550 T plugin_glTextureRangeAPPLE
001fb84c T plugin_glTextureRenderbufferEXT
001dbd74 T plugin_glTextureStorage1D
001e86ac T plugin_glTextureStorage1DEXT
001dbe04 T plugin_glTextureStorage2D
001e8738 T plugin_glTextureStorage2DEXT
001dbe94 T plugin_glTextureStorage2DMultisample
001e89b0 T plugin_glTextureStorage2DMultisampleEXT
001dbf3c T plugin_glTextureStorage3D
001e87c8 T plugin_glTextureStorage3DEXT
001dbfc8 T plugin_glTextureStorage3DMultisample
001e8a60 T plugin_glTextureStorage3DMultisampleEXT
001d5a60 T plugin_glTextureStorageSparseAMD
001dc078 T plugin_glTextureSubImage1D
001fb8d4 T plugin_glTextureSubImage1DEXT
001dc108 T plugin_glTextureSubImage2D
001fb960 T plugin_glTextureSubImage2DEXT
001dc198 T plugin_glTextureSubImage3D
001fb9f0 T plugin_glTextureSubImage3DEXT
001e8b18 T plugin_glTextureView
00212a28 T plugin_glTrackMatrixNV
00210360 T plugin_glTransformFeedbackAttribsNV
001dc224 T plugin_glTransformFeedbackBufferBase
001dc2ac T plugin_glTransformFeedbackBufferRange
001d3410 T plugin_glTransformFeedbackVaryings
00202840 T plugin_glTransformFeedbackVaryingsEXT
002103e8 T plugin_glTransformFeedbackVaryingsNV
0020e2fc T plugin_glTransformPathNV
001c9bb8 T plugin_glTranslated
001c9c48 T plugin_glTranslatef
00217ad8 T plugin_glTranslatex
001de014 T plugin_glUniform1d
001de09c T plugin_glUniform1dv
001d05b8 T plugin_glUniform1f
001e6190 T plugin_glUniform1fARB
001d0638 T plugin_glUniform1fv
001e6210 T plugin_glUniform1fvARB
001d06c0 T plugin_glUniform1i
0020a1a8 T plugin_glUniform1i64NV
0020a230 T plugin_glUniform1i64vNV
001e6298 T plugin_glUniform1iARB
001d073c T plugin_glUniform1iv
001e6318 T plugin_glUniform1ivARB
001d34a0 T plugin_glUniform1ui
0020a2b8 T plugin_glUniform1ui64NV
0020a340 T plugin_glUniform1ui64vNV
001fe2d0 T plugin_glUniform1uiEXT
001d351c T plugin_glUniform1uiv
001fe350 T plugin_glUniform1uivEXT
001de124 T plugin_glUniform2d
001de1ac T plugin_glUniform2dv
001d07c4 T plugin_glUniform2f
001e63a0 T plugin_glUniform2fARB
001d084c T plugin_glUniform2fv
001e6424 T plugin_glUniform2fvARB
001d08d4 T plugin_glUniform2i
0020a3c8 T plugin_glUniform2i64NV
0020a44c T plugin_glUniform2i64vNV
001e64ac T plugin_glUniform2iARB
001d0958 T plugin_glUniform2iv
001e6534 T plugin_glUniform2ivARB
001d35a4 T plugin_glUniform2ui
0020a4d4 T plugin_glUniform2ui64NV
0020a55c T plugin_glUniform2ui64vNV
001fe3d4 T plugin_glUniform2uiEXT
001d362c T plugin_glUniform2uiv
001fe45c T plugin_glUniform2uivEXT
001de230 T plugin_glUniform3d
001de2b8 T plugin_glUniform3dv
001d09e0 T plugin_glUniform3f
001e65bc T plugin_glUniform3fARB
001d0a70 T plugin_glUniform3fv
001e664c T plugin_glUniform3fvARB
001d0af8 T plugin_glUniform3i
0020a5e4 T plugin_glUniform3i64NV
0020a66c T plugin_glUniform3i64vNV
001e66d4 T plugin_glUniform3iARB
001d0b84 T plugin_glUniform3iv
001e6764 T plugin_glUniform3ivARB
001d36b4 T plugin_glUniform3ui
0020a6f4 T plugin_glUniform3ui64NV
0020a77c T plugin_glUniform3ui64vNV
001fe4e4 T plugin_glUniform3uiEXT
001d3740 T plugin_glUniform3uiv
001fe574 T plugin_glUniform3uivEXT
001de340 T plugin_glUniform4d
001de3c8 T plugin_glUniform4dv
001d0c0c T plugin_glUniform4f
001e67ec T plugin_glUniform4fARB
001d0c9c T plugin_glUniform4fv
001e687c T plugin_glUniform4fvARB
001d0d24 T plugin_glUniform4i
0020a804 T plugin_glUniform4i64NV
0020a88c T plugin_glUniform4i64vNV
001e6904 T plugin_glUniform4iARB
001d0db0 T plugin_glUniform4iv
001e6994 T plugin_glUniform4ivARB
001d37c8 T plugin_glUniform4ui
0020a914 T plugin_glUniform4ui64NV
0020a99c T plugin_glUniform4ui64vNV
001fe5fc T plugin_glUniform4uiEXT
001d3858 T plugin_glUniform4uiv
001fe68c T plugin_glUniform4uivEXT
001e9a88 T plugin_glUniformBlockBinding
001f2500 T plugin_glUniformBufferEXT
001d87c8 T plugin_glUniformHandleui64ARB
002078ac T plugin_glUniformHandleui64NV
001d8850 T plugin_glUniformHandleui64vARB
00207930 T plugin_glUniformHandleui64vNV
001de44c T plugin_glUniformMatrix2dv
001d0e38 T plugin_glUniformMatrix2fv
001e6a1c T plugin_glUniformMatrix2fvARB
001de4dc T plugin_glUniformMatrix2x3dv
001d23e0 T plugin_glUniformMatrix2x3fv
0020c180 T plugin_glUniformMatrix2x3fvNV
001de56c T plugin_glUniformMatrix2x4dv
001d246c T plugin_glUniformMatrix2x4fv
0020c210 T plugin_glUniformMatrix2x4fvNV
001de5fc T plugin_glUniformMatrix3dv
001d0ec8 T plugin_glUniformMatrix3fv
001e6aac T plugin_glUniformMatrix3fvARB
001de688 T plugin_glUniformMatrix3x2dv
001d24fc T plugin_glUniformMatrix3x2fv
0020c2a0 T plugin_glUniformMatrix3x2fvNV
001de718 T plugin_glUniformMatrix3x4dv
001d258c T plugin_glUniformMatrix3x4fv
0020c330 T plugin_glUniformMatrix3x4fvNV
001de7a8 T plugin_glUniformMatrix4dv
001d0f58 T plugin_glUniformMatrix4fv
001e6b3c T plugin_glUniformMatrix4fvARB
001de838 T plugin_glUniformMatrix4x2dv
001d261c T plugin_glUniformMatrix4x2fv
0020c3c0 T plugin_glUniformMatrix4x2fvNV
001de8c4 T plugin_glUniformMatrix4x3dv
001d26a8 T plugin_glUniformMatrix4x3fv
0020c450 T plugin_glUniformMatrix4x3fvNV
001e7228 T plugin_glUniformSubroutinesuiv
0020f8fc T plugin_glUniformui64NV
0020f984 T plugin_glUniformui64vNV
001f293c T plugin_glUnlockArraysEXT
001cf368 T plugin_glUnmapBuffer
001eb314 T plugin_glUnmapBufferARB
00215194 T plugin_glUnmapBufferOES
001dc33c T plugin_glUnmapNamedBuffer
001fba80 T plugin_glUnmapNamedBufferEXT
001f0218 T plugin_glUnmapObjectBufferATI
00205758 T plugin_glUnmapTexture2DINTEL
001f09e4 T plugin_glUpdateObjectBufferATI
001d0fe4 T plugin_glUseProgram
001e6bcc T plugin_glUseProgramObjectARB
001e55c8 T plugin_glUseProgramStages
002015d4 T plugin_glUseShaderProgramEXT
001d105c T plugin_glValidateProgram
001e6c44 T plugin_glValidateProgramARB
001e5650 T plugin_glValidateProgramPipeline
001f0a74 T plugin_glVariantArrayObjectATI
0020445c T plugin_glVariantbvEXT
002044dc T plugin_glVariantdvEXT
0020455c T plugin_glVariantfvEXT
002045dc T plugin_glVariantivEXT
002043cc T plugin_glVariantPointerEXT
0020465c T plugin_glVariantsvEXT
002046dc T plugin_glVariantubvEXT
00204758 T plugin_glVariantuivEXT
002047d8 T plugin_glVariantusvEXT
002107c8 T plugin_glVDPAUFiniNV
00210834 T plugin_glVDPAUGetSurfaceivNV
002108c4 T plugin_glVDPAUInitNV
00210940 T plugin_glVDPAUIsSurfaceNV
002109b8 T plugin_glVDPAUMapSurfacesNV
00210a38 T plugin_glVDPAURegisterOutputSurfaceNV
00210ac8 T plugin_glVDPAURegisterVideoSurfaceNV
00210b58 T plugin_glVDPAUSurfaceAccessNV
00210bd8 T plugin_glVDPAUUnmapSurfacesNV
00210c58 T plugin_glVDPAUUnregisterSurfaceNV
001c9cd0 T plugin_glVertex2d
001c9d5c T plugin_glVertex2dv
001c9dd4 T plugin_glVertex2f
001c9e54 T plugin_glVertex2fv
0020b73c T plugin_glVertex2hNV
0020b7bc T plugin_glVertex2hvNV
001c9ecc T plugin_glVertex2i
001c9f48 T plugin_glVertex2iv
001c9fc0 T plugin_glVertex2s
001ca040 T plugin_glVertex2sv
001ca0b8 T plugin_glVertex3d
001ca144 T plugin_glVertex3dv
001ca1bc T plugin_glVertex3f
001ca244 T plugin_glVertex3fv
0020b834 T plugin_glVertex3hNV
0020b8bc T plugin_glVertex3hvNV
001ca2bc T plugin_glVertex3i
001ca340 T plugin_glVertex3iv
001ca3b8 T plugin_glVertex3s
001ca440 T plugin_glVertex3sv
001ca4b8 T plugin_glVertex4d
001ca544 T plugin_glVertex4dv
001ca5bc T plugin_glVertex4f
001ca64c T plugin_glVertex4fv
0020b934 T plugin_glVertex4hNV
0020b9c4 T plugin_glVertex4hvNV
001ca6c4 T plugin_glVertex4i
001ca750 T plugin_glVertex4iv
001ca7c8 T plugin_glVertex4s
001ca858 T plugin_glVertex4sv
001dc3b4 T plugin_glVertexArrayAttribBinding
001dc438 T plugin_glVertexArrayAttribFormat
001dc4e0 T plugin_glVertexArrayAttribIFormat
001dc570 T plugin_glVertexArrayAttribLFormat
001dc600 T plugin_glVertexArrayBindingDivisor
001ea2c4 T plugin_glVertexArrayBindVertexBufferEXT
001fbaf8 T plugin_glVertexArrayColorOffsetEXT
001fbb88 T plugin_glVertexArrayEdgeFlagOffsetEXT
001dc684 T plugin_glVertexArrayElementBuffer
001fbc18 T plugin_glVertexArrayFogCoordOffsetEXT
001fbca8 T plugin_glVertexArrayIndexOffsetEXT
001fbd38 T plugin_glVertexArrayMultiTexCoordOffsetEXT
001fbdc8 T plugin_glVertexArrayNormalOffsetEXT
001d7844 T plugin_glVertexArrayParameteriAPPLE
001d78c4 T plugin_glVertexArrayRangeAPPLE
00210d3c T plugin_glVertexArrayRangeNV
001fbe58 T plugin_glVertexArraySecondaryColorOffsetEXT
001fbee8 T plugin_glVertexArrayTexCoordOffsetEXT
001ea354 T plugin_glVertexArrayVertexAttribBindingEXT
001ea3dc T plugin_glVertexArrayVertexAttribFormatEXT
001ea484 T plugin_glVertexArrayVertexAttribIFormatEXT
001fbf78 T plugin_glVertexArrayVertexAttribIOffsetEXT
001ea514 T plugin_glVertexArrayVertexAttribLFormatEXT
00202e30 T plugin_glVertexArrayVertexAttribLOffsetEXT
001fc008 T plugin_glVertexArrayVertexAttribOffsetEXT
001ea5a4 T plugin_glVertexArrayVertexBindingDivisorEXT
001dc704 T plugin_glVertexArrayVertexBuffer
001dc794 T plugin_glVertexArrayVertexBuffers
001fc0c0 T plugin_glVertexArrayVertexOffsetEXT
001d10d4 T plugin_glVertexAttrib1d
001ec0b0 T plugin_glVertexAttrib1dARB
00212ab4 T plugin_glVertexAttrib1dNV
001d115c T plugin_glVertexAttrib1dv
001ec138 T plugin_glVertexAttrib1dvARB
00212b3c T plugin_glVertexAttrib1dvNV
001d11d8 T plugin_glVertexAttrib1f
001ec1b8 T plugin_glVertexAttrib1fARB
00212bbc T plugin_glVertexAttrib1fNV
001d1258 T plugin_glVertexAttrib1fv
001ec234 T plugin_glVertexAttrib1fvARB
00212c3c T plugin_glVertexAttrib1fvNV
0020ba3c T plugin_glVertexAttrib1hNV
0020babc T plugin_glVertexAttrib1hvNV
001d12d8 T plugin_glVertexAttrib1s
001ec2b4 T plugin_glVertexAttrib1sARB
00212cbc T plugin_glVertexAttrib1sNV
001d1358 T plugin_glVertexAttrib1sv
001ec334 T plugin_glVertexAttrib1svARB
00212d3c T plugin_glVertexAttrib1svNV
001d13d4 T plugin_glVertexAttrib2d
001ec3b4 T plugin_glVertexAttrib2dARB
00212dbc T plugin_glVertexAttrib2dNV
001d145c T plugin_glVertexAttrib2dv
001ec43c T plugin_glVertexAttrib2dvARB
00212e44 T plugin_glVertexAttrib2dvNV
001d14dc T plugin_glVertexAttrib2f
001ec4bc T plugin_glVertexAttrib2fARB
00212ec4 T plugin_glVertexAttrib2fNV
001d1564 T plugin_glVertexAttrib2fv
001ec544 T plugin_glVertexAttrib2fvARB
00212f4c T plugin_glVertexAttrib2fvNV
0020bb3c T plugin_glVertexAttrib2hNV
0020bbc4 T plugin_glVertexAttrib2hvNV
001d15e0 T plugin_glVertexAttrib2s
001ec5c4 T plugin_glVertexAttrib2sARB
00212fcc T plugin_glVertexAttrib2sNV
001d1668 T plugin_glVertexAttrib2sv
001ec64c T plugin_glVertexAttrib2svARB
00213054 T plugin_glVertexAttrib2svNV
001d16e8 T plugin_glVertexAttrib3d
001ec6cc T plugin_glVertexAttrib3dARB
002130d4 T plugin_glVertexAttrib3dNV
001d1770 T plugin_glVertexAttrib3dv
001ec754 T plugin_glVertexAttrib3dvARB
0021315c T plugin_glVertexAttrib3dvNV
001d17ec T plugin_glVertexAttrib3f
001ec7d4 T plugin_glVertexAttrib3fARB
002131dc T plugin_glVertexAttrib3fNV
001d187c T plugin_glVertexAttrib3fv
001ec864 T plugin_glVertexAttrib3fvARB
0021326c T plugin_glVertexAttrib3fvNV
0020bc44 T plugin_glVertexAttrib3hNV
0020bcd0 T plugin_glVertexAttrib3hvNV
001d18fc T plugin_glVertexAttrib3s
001ec8e4 T plugin_glVertexAttrib3sARB
002132e8 T plugin_glVertexAttrib3sNV
001d198c T plugin_glVertexAttrib3sv
001ec974 T plugin_glVertexAttrib3svARB
00213378 T plugin_glVertexAttrib3svNV
001d1da4 T plugin_glVertexAttrib4bv
001ecd90 T plugin_glVertexAttrib4bvARB
001d1e20 T plugin_glVertexAttrib4d
001ece10 T plugin_glVertexAttrib4dARB
002133f8 T plugin_glVertexAttrib4dNV
001d1ea8 T plugin_glVertexAttrib4dv
001ece98 T plugin_glVertexAttrib4dvARB
00213480 T plugin_glVertexAttrib4dvNV
001d1f28 T plugin_glVertexAttrib4f
001ecf18 T plugin_glVertexAttrib4fARB
00213500 T plugin_glVertexAttrib4fNV
001d1fb8 T plugin_glVertexAttrib4fv
001ecfa8 T plugin_glVertexAttrib4fvARB
00213590 T plugin_glVertexAttrib4fvNV
0020bd50 T plugin_glVertexAttrib4hNV
0020bdf0 T plugin_glVertexAttrib4hvNV
001d2034 T plugin_glVertexAttrib4iv
001ed028 T plugin_glVertexAttrib4ivARB
001d1a08 T plugin_glVertexAttrib4Nbv
001ec9f4 T plugin_glVertexAttrib4NbvARB
001d1a88 T plugin_glVertexAttrib4Niv
001eca70 T plugin_glVertexAttrib4NivARB
001d1b08 T plugin_glVertexAttrib4Nsv
001ecaf0 T plugin_glVertexAttrib4NsvARB
001d1b88 T plugin_glVertexAttrib4Nub
001ecb70 T plugin_glVertexAttrib4NubARB
001d1c24 T plugin_glVertexAttrib4Nubv
001ecc10 T plugin_glVertexAttrib4NubvARB
001d1ca4 T plugin_glVertexAttrib4Nuiv
001ecc90 T plugin_glVertexAttrib4NuivARB
001d1d24 T plugin_glVertexAttrib4Nusv
001ecd10 T plugin_glVertexAttrib4NusvARB
001d20b4 T plugin_glVertexAttrib4s
001ed0a8 T plugin_glVertexAttrib4sARB
00213610 T plugin_glVertexAttrib4sNV
001d2154 T plugin_glVertexAttrib4sv
001ed148 T plugin_glVertexAttrib4svARB
002136b0 T plugin_glVertexAttrib4svNV
00213730 T plugin_glVertexAttrib4ubNV
001d21d4 T plugin_glVertexAttrib4ubv
001ed1c8 T plugin_glVertexAttrib4ubvARB
002137d0 T plugin_glVertexAttrib4ubvNV
001d2250 T plugin_glVertexAttrib4uiv
001ed248 T plugin_glVertexAttrib4uivARB
001d22d0 T plugin_glVertexAttrib4usv
001ed2c4 T plugin_glVertexAttrib4usvARB
001f0c14 T plugin_glVertexAttribArrayObjectATI
001ea62c T plugin_glVertexAttribBinding
001d4764 T plugin_glVertexAttribDivisor
001d5e98 T plugin_glVertexAttribDivisorANGLE
001dfbac T plugin_glVertexAttribDivisorARB
001ea6ac T plugin_glVertexAttribFormat
00211c3c T plugin_glVertexAttribFormatNV
001d38e0 T plugin_glVertexAttribI1i
001fe714 T plugin_glVertexAttribI1iEXT
001d395c T plugin_glVertexAttribI1iv
001fe794 T plugin_glVertexAttribI1ivEXT
001d39dc T plugin_glVertexAttribI1ui
001fe814 T plugin_glVertexAttribI1uiEXT
001d3a5c T plugin_glVertexAttribI1uiv
001fe894 T plugin_glVertexAttribI1uivEXT
001d3adc T plugin_glVertexAttribI2i
001fe914 T plugin_glVertexAttribI2iEXT
001d3b60 T plugin_glVertexAttribI2iv
001fe99c T plugin_glVertexAttribI2ivEXT
001d3be0 T plugin_glVertexAttribI2ui
001fea1c T plugin_glVertexAttribI2uiEXT
001d3c68 T plugin_glVertexAttribI2uiv
001feaa4 T plugin_glVertexAttribI2uivEXT
001d3ce8 T plugin_glVertexAttribI3i
001feb24 T plugin_glVertexAttribI3iEXT
001d3d74 T plugin_glVertexAttribI3iv
001febb4 T plugin_glVertexAttribI3ivEXT
001d3df4 T plugin_glVertexAttribI3ui
001fec30 T plugin_glVertexAttribI3uiEXT
001d3e84 T plugin_glVertexAttribI3uiv
001fecc0 T plugin_glVertexAttribI3uivEXT
001d3f04 T plugin_glVertexAttribI4bv
001fed40 T plugin_glVertexAttribI4bvEXT
001d3f80 T plugin_glVertexAttribI4i
001fedc0 T plugin_glVertexAttribI4iEXT
001d4010 T plugin_glVertexAttribI4iv
001fee50 T plugin_glVertexAttribI4ivEXT
001d4090 T plugin_glVertexAttribI4sv
001feed0 T plugin_glVertexAttribI4svEXT
001d4110 T plugin_glVertexAttribI4ubv
001fef50 T plugin_glVertexAttribI4ubvEXT
001d418c T plugin_glVertexAttribI4ui
001fefd0 T plugin_glVertexAttribI4uiEXT
001d421c T plugin_glVertexAttribI4uiv
001ff060 T plugin_glVertexAttribI4uivEXT
001d429c T plugin_glVertexAttribI4usv
001ff0e0 T plugin_glVertexAttribI4usvEXT
001ea73c T plugin_glVertexAttribIFormat
00211ccc T plugin_glVertexAttribIFormatNV
001d431c T plugin_glVertexAttribIPointer
001ff160 T plugin_glVertexAttribIPointerEXT
001e9d88 T plugin_glVertexAttribL1d
00202ebc T plugin_glVertexAttribL1dEXT
001e9e10 T plugin_glVertexAttribL1dv
00202f44 T plugin_glVertexAttribL1dvEXT
00210ecc T plugin_glVertexAttribL1i64NV
00210f54 T plugin_glVertexAttribL1i64vNV
001d88d8 T plugin_glVertexAttribL1ui64ARB
00210fd4 T plugin_glVertexAttribL1ui64NV
001d8960 T plugin_glVertexAttribL1ui64vARB
0021105c T plugin_glVertexAttribL1ui64vNV
001e9e90 T plugin_glVertexAttribL2d
00202fc4 T plugin_glVertexAttribL2dEXT
001e9f18 T plugin_glVertexAttribL2dv
0020304c T plugin_glVertexAttribL2dvEXT
002110dc T plugin_glVertexAttribL2i64NV
00211160 T plugin_glVertexAttribL2i64vNV
002111e0 T plugin_glVertexAttribL2ui64NV
00211268 T plugin_glVertexAttribL2ui64vNV
001e9f98 T plugin_glVertexAttribL3d
002030cc T plugin_glVertexAttribL3dEXT
001ea020 T plugin_glVertexAttribL3dv
00203154 T plugin_glVertexAttribL3dvEXT
002112e8 T plugin_glVertexAttribL3i64NV
00211370 T plugin_glVertexAttribL3i64vNV
002113f0 T plugin_glVertexAttribL3ui64NV
00211478 T plugin_glVertexAttribL3ui64vNV
001ea09c T plugin_glVertexAttribL4d
002031d4 T plugin_glVertexAttribL4dEXT
001ea124 T plugin_glVertexAttribL4dv
0020325c T plugin_glVertexAttribL4dvEXT
002114f8 T plugin_glVertexAttribL4i64NV
00211580 T plugin_glVertexAttribL4i64vNV
00211600 T plugin_glVertexAttribL4ui64NV
00211688 T plugin_glVertexAttribL4ui64vNV
001ea7cc T plugin_glVertexAttribLFormat
00211708 T plugin_glVertexAttribLFormatNV
001ea1a4 T plugin_glVertexAttribLPointer
002032dc T plugin_glVertexAttribLPointerEXT
001ee1a8 T plugin_glVertexAttribP1ui
001ee238 T plugin_glVertexAttribP1uiv
001ee2c8 T plugin_glVertexAttribP2ui
001ee354 T plugin_glVertexAttribP2uiv
001ee3e4 T plugin_glVertexAttribP3ui
001ee474 T plugin_glVertexAttribP3uiv
001ee504 T plugin_glVertexAttribP4ui
001ee594 T plugin_glVertexAttribP4uiv
001d5048 T plugin_glVertexAttribParameteriAMD
001d2350 T plugin_glVertexAttribPointer
001ed344 T plugin_glVertexAttribPointerARB
00213850 T plugin_glVertexAttribPointerNV
002138e0 T plugin_glVertexAttribs1dvNV
00213968 T plugin_glVertexAttribs1fvNV
0020be70 T plugin_glVertexAttribs1hvNV
002139f0 T plugin_glVertexAttribs1svNV
00213a78 T plugin_glVertexAttribs2dvNV
00213b00 T plugin_glVertexAttribs2fvNV
0020bef8 T plugin_glVertexAttribs2hvNV
00213b84 T plugin_glVertexAttribs2svNV
00213c0c T plugin_glVertexAttribs3dvNV
00213c94 T plugin_glVertexAttribs3fvNV
0020bf80 T plugin_glVertexAttribs3hvNV
00213d1c T plugin_glVertexAttribs3svNV
00213da4 T plugin_glVertexAttribs4dvNV
00213e2c T plugin_glVertexAttribs4fvNV
0020c008 T plugin_glVertexAttribs4hvNV
00213eb4 T plugin_glVertexAttribs4svNV
00213f3c T plugin_glVertexAttribs4ubvNV
001ea85c T plugin_glVertexBindingDivisor
001ea8dc T plugin_glVertexBlendARB
001f1260 T plugin_glVertexBlendEnvfATI
001f12e0 T plugin_glVertexBlendEnviATI
00211d5c T plugin_glVertexFormatNV
001ee624 T plugin_glVertexP2ui
001ee6a4 T plugin_glVertexP2uiv
001ee724 T plugin_glVertexP3ui
001ee7a4 T plugin_glVertexP3uiv
001ee824 T plugin_glVertexP4ui
001ee8a4 T plugin_glVertexP4uiv
001cb834 T plugin_glVertexPointer
00202d18 T plugin_glVertexPointerEXT
00205410 T plugin_glVertexPointerListIBM
00205964 T plugin_glVertexPointervINTEL
001f1360 T plugin_glVertexStream1dATI
001f13e8 T plugin_glVertexStream1dvATI
001f1468 T plugin_glVertexStream1fATI
001f14e4 T plugin_glVertexStream1fvATI
001f1564 T plugin_glVertexStream1iATI
001f15e4 T plugin_glVertexStream1ivATI
001f1664 T plugin_glVertexStream1sATI
001f16e4 T plugin_glVertexStream1svATI
001f1764 T plugin_glVertexStream2dATI
001f17ec T plugin_glVertexStream2dvATI
001f186c T plugin_glVertexStream2fATI
001f18f4 T plugin_glVertexStream2fvATI
001f1974 T plugin_glVertexStream2iATI
001f19fc T plugin_glVertexStream2ivATI
001f1a7c T plugin_glVertexStream2sATI
001f1b04 T plugin_glVertexStream2svATI
001f1b84 T plugin_glVertexStream3dATI
001f1c0c T plugin_glVertexStream3dvATI
001f1c8c T plugin_glVertexStream3fATI
001f1d18 T plugin_glVertexStream3fvATI
001f1d98 T plugin_glVertexStream3iATI
001f1e28 T plugin_glVertexStream3ivATI
001f1ea8 T plugin_glVertexStream3sATI
001f1f38 T plugin_glVertexStream3svATI
001f1fb8 T plugin_glVertexStream4dATI
001f2040 T plugin_glVertexStream4dvATI
001f20c0 T plugin_glVertexStream4fATI
001f2150 T plugin_glVertexStream4fvATI
001f21d0 T plugin_glVertexStream4iATI
001f2260 T plugin_glVertexStream4ivATI
001f22e0 T plugin_glVertexStream4sATI
001f2380 T plugin_glVertexStream4svATI
00204978 T plugin_glVertexWeightfEXT
002049f0 T plugin_glVertexWeightfvEXT
0020c090 T plugin_glVertexWeighthNV
0020c108 T plugin_glVertexWeighthvNV
002048e8 T plugin_glVertexWeightPointerEXT
00214408 T plugin_glVideoCaptureNV
00214490 T plugin_glVideoCaptureStreamParameterdvNV
00214520 T plugin_glVideoCaptureStreamParameterfvNV
002145b0 T plugin_glVideoCaptureStreamParameterivNV
001ca8d0 T plugin_glViewport
001eecd8 T plugin_glViewportArrayv
001eed60 T plugin_glViewportIndexedf
001eedf0 T plugin_glViewportIndexedfv
001e7b14 T plugin_glWaitSync
001d743c T plugin_glWaitSyncAPPLE
001ea9e0 T plugin_glWeightbvARB
001eaa60 T plugin_glWeightdvARB
001eaae0 T plugin_glWeightfvARB
001eab60 T plugin_glWeightivARB
0020e38c T plugin_glWeightPathsNV
001ea950 T plugin_glWeightPointerARB
00215314 T plugin_glWeightPointerOES
001eabe0 T plugin_glWeightsvARB
001eac60 T plugin_glWeightubvARB
001eace0 T plugin_glWeightuivARB
001ead60 T plugin_glWeightusvARB
001ce254 T plugin_glWindowPos2d
001eee70 T plugin_glWindowPos2dARB
00206608 T plugin_glWindowPos2dMESA
001ce2e0 T plugin_glWindowPos2dv
001eef00 T plugin_glWindowPos2dvARB
00206698 T plugin_glWindowPos2dvMESA
001ce358 T plugin_glWindowPos2f
001eef78 T plugin_glWindowPos2fARB
00206710 T plugin_glWindowPos2fMESA
001ce3d8 T plugin_glWindowPos2fv
001eeff8 T plugin_glWindowPos2fvARB
00206790 T plugin_glWindowPos2fvMESA
001ce450 T plugin_glWindowPos2i
001ef070 T plugin_glWindowPos2iARB
00206808 T plugin_glWindowPos2iMESA
001ce4cc T plugin_glWindowPos2iv
001ef0f0 T plugin_glWindowPos2ivARB
00206888 T plugin_glWindowPos2ivMESA
001ce544 T plugin_glWindowPos2s
001ef168 T plugin_glWindowPos2sARB
002068fc T plugin_glWindowPos2sMESA
001ce5c4 T plugin_glWindowPos2sv
001ef1e8 T plugin_glWindowPos2svARB
0020697c T plugin_glWindowPos2svMESA
001ce63c T plugin_glWindowPos3d
001ef260 T plugin_glWindowPos3dARB
002069f4 T plugin_glWindowPos3dMESA
001ce6c8 T plugin_glWindowPos3dv
001ef2f0 T plugin_glWindowPos3dvARB
00206a84 T plugin_glWindowPos3dvMESA
001ce740 T plugin_glWindowPos3f
001ef368 T plugin_glWindowPos3fARB
00206afc T plugin_glWindowPos3fMESA
001ce7c8 T plugin_glWindowPos3fv
001ef3ec T plugin_glWindowPos3fvARB
00206b84 T plugin_glWindowPos3fvMESA
001ce840 T plugin_glWindowPos3i
001ef464 T plugin_glWindowPos3iARB
00206bfc T plugin_glWindowPos3iMESA
001ce8c4 T plugin_glWindowPos3iv
001ef4ec T plugin_glWindowPos3ivARB
00206c84 T plugin_glWindowPos3ivMESA
001ce93c T plugin_glWindowPos3s
001ef564 T plugin_glWindowPos3sARB
00206cfc T plugin_glWindowPos3sMESA
001ce9c4 T plugin_glWindowPos3sv
001ef5ec T plugin_glWindowPos3svARB
00206d84 T plugin_glWindowPos3svMESA
00206dfc T plugin_glWindowPos4dMESA
00206e8c T plugin_glWindowPos4dvMESA
00206f04 T plugin_glWindowPos4fMESA
00206f94 T plugin_glWindowPos4fvMESA
0020700c T plugin_glWindowPos4iMESA
0020709c T plugin_glWindowPos4ivMESA
00207110 T plugin_glWindowPos4sMESA
002071a0 T plugin_glWindowPos4svMESA
00204858 T plugin_glWriteMaskEXT
         U poll
         U popen
         U powf
         U printf
         U pthread_attr_destroy
         U pthread_attr_init
         U pthread_attr_setdetachstate
         U pthread_cond_broadcast
         U pthread_cond_destroy
         U pthread_cond_init
         U pthread_cond_signal
         U pthread_cond_wait
         U pthread_create
         U pthread_getspecific
         U pthread_join
         U pthread_key_create
         U pthread_key_delete
         U pthread_mutex_destroy
         U pthread_mutex_init
         U pthread_mutex_lock
         U pthread_mutex_unlock
         U pthread_mutexattr_destroy
         U pthread_mutexattr_init
         U pthread_mutexattr_settype
         U pthread_once
         U pthread_self
         U pthread_setspecific
         U putchar
         U puts
         U qsort
         U raise
004e3a38 T ralloc_array_size
004e4060 T ralloc_asprintf
004e41f0 T ralloc_asprintf_append
004e4474 T ralloc_asprintf_rewrite_tail
004e3cbc T ralloc_autofree_context
004e386c T ralloc_context
004e3b70 T ralloc_free
004e3ca0 T ralloc_parent
004e3d8c T ralloc_set_destructor
004e38b8 T ralloc_size
004e3c1c T ralloc_steal
004e3ec0 T ralloc_strcat
004e3d94 T ralloc_strdup
004e3f8c T ralloc_strncat
004e3e24 T ralloc_strndup
004e4134 T ralloc_vasprintf
004e427c T ralloc_vasprintf_append
004e42f0 T ralloc_vasprintf_rewrite_tail
         U read
         U readdir
         U realloc
         U recv
0017ba90 T RegalConfigure
0017bc30 T RegalDestroyContext
0017bbe8 T RegalMakeCurrent
0017b9ec T RegalSetErrorCallback
0017bb98 T RegalShareContext
         U remove
         U rename
004e3b28 T reralloc_array_size
004e3968 T reralloc_size
         U rmdir
004e3aa8 T rzalloc_array_size
004e3904 T rzalloc_size
         U send
         U setbuf
         U setgid
         U setsockopt
         U setuid
         U shutdown
         U sinf
         U sleep
         U snprintf
         U socket
         U sprintf
         U sscanf
         U stat
         U strchr
         U strcmp
         U strcpy
         U strcspn
         U strdup
         U strerror
         U strftime
         U strlen
         U strncmp
         U strncpy
         U strrchr
         U strspn
         U strstr
         U strtod
         U strtol
         U strtoll
         U strtoul
         U strtoull
         U time
         U tolower
         U toupper
         U truncf
         U uname
         U usleep
         U vasprintf
         U vfprintf
         U vsnprintf
         U vsprintf
         U waitpid
